	.section	__TEXT,__text,regular,pure_instructions
	.build_version macos, 15, 0	sdk_version 15, 1
	.globl	_main                           ; -- Begin function main
	.p2align	2
_main:                                  ; @main
Lfunc_begin0:
	.cfi_startproc
	.cfi_personality 155, ___gxx_personality_v0
	.cfi_lsda 16, Lexception0
; %bb.0:
	sub	sp, sp, #96
	stp	x29, x30, [sp, #80]             ; 16-byte Folded Spill
	add	x29, sp, #80
	.cfi_def_cfa w29, 16
	.cfi_offset w30, -8
	.cfi_offset w29, -16
	stur	wzr, [x29, #-4]
	sub	x0, x29, #32
	str	x0, [sp, #8]                    ; 8-byte Folded Spill
	bl	__ZNSt3__13mapIiiNS_4lessIiEENS_9allocatorINS_4pairIKiiEEEEEC1B8ne180100Ev
	ldr	x0, [sp, #8]                    ; 8-byte Folded Reload
	sub	x1, x29, #36
	mov	w8, #1                          ; =0x1
	stur	w8, [x29, #-36]
Ltmp0:
	bl	__ZNSt3__13mapIiiNS_4lessIiEENS_9allocatorINS_4pairIKiiEEEEEixERS5_
	str	x0, [sp, #16]                   ; 8-byte Folded Spill
Ltmp1:
	b	LBB0_1
LBB0_1:
	ldr	x9, [sp, #16]                   ; 8-byte Folded Reload
	ldr	w8, [x9]
	add	w8, w8, #0
	str	w8, [x9]
	stur	wzr, [x29, #-4]
	sub	x0, x29, #32
	bl	__ZNSt3__13mapIiiNS_4lessIiEENS_9allocatorINS_4pairIKiiEEEEED1B8ne180100Ev
	ldur	w0, [x29, #-4]
	ldp	x29, x30, [sp, #80]             ; 16-byte Folded Reload
	add	sp, sp, #96
	ret
LBB0_2:
Ltmp2:
	str	x0, [sp, #32]
	mov	x8, x1
	str	w8, [sp, #28]
Ltmp3:
	sub	x0, x29, #32
	bl	__ZNSt3__13mapIiiNS_4lessIiEENS_9allocatorINS_4pairIKiiEEEEED1B8ne180100Ev
Ltmp4:
	b	LBB0_3
LBB0_3:
	b	LBB0_4
LBB0_4:
	ldr	x0, [sp, #32]
	bl	__Unwind_Resume
LBB0_5:
Ltmp5:
	bl	___clang_call_terminate
Lfunc_end0:
	.cfi_endproc
	.section	__TEXT,__gcc_except_tab
	.p2align	2, 0x0
GCC_except_table0:
Lexception0:
	.byte	255                             ; @LPStart Encoding = omit
	.byte	155                             ; @TType Encoding = indirect pcrel sdata4
	.uleb128 Lttbase0-Lttbaseref0
Lttbaseref0:
	.byte	1                               ; Call site Encoding = uleb128
	.uleb128 Lcst_end0-Lcst_begin0
Lcst_begin0:
	.uleb128 Lfunc_begin0-Lfunc_begin0      ; >> Call Site 1 <<
	.uleb128 Ltmp0-Lfunc_begin0             ;   Call between Lfunc_begin0 and Ltmp0
	.byte	0                               ;     has no landing pad
	.byte	0                               ;   On action: cleanup
	.uleb128 Ltmp0-Lfunc_begin0             ; >> Call Site 2 <<
	.uleb128 Ltmp1-Ltmp0                    ;   Call between Ltmp0 and Ltmp1
	.uleb128 Ltmp2-Lfunc_begin0             ;     jumps to Ltmp2
	.byte	0                               ;   On action: cleanup
	.uleb128 Ltmp1-Lfunc_begin0             ; >> Call Site 3 <<
	.uleb128 Ltmp3-Ltmp1                    ;   Call between Ltmp1 and Ltmp3
	.byte	0                               ;     has no landing pad
	.byte	0                               ;   On action: cleanup
	.uleb128 Ltmp3-Lfunc_begin0             ; >> Call Site 4 <<
	.uleb128 Ltmp4-Ltmp3                    ;   Call between Ltmp3 and Ltmp4
	.uleb128 Ltmp5-Lfunc_begin0             ;     jumps to Ltmp5
	.byte	1                               ;   On action: 1
	.uleb128 Ltmp4-Lfunc_begin0             ; >> Call Site 5 <<
	.uleb128 Lfunc_end0-Ltmp4               ;   Call between Ltmp4 and Lfunc_end0
	.byte	0                               ;     has no landing pad
	.byte	0                               ;   On action: cleanup
Lcst_end0:
	.byte	1                               ; >> Action Record 1 <<
                                        ;   Catch TypeInfo 1
	.byte	0                               ;   No further actions
	.p2align	2, 0x0
                                        ; >> Catch TypeInfos <<
	.long	0                               ; TypeInfo 1
Lttbase0:
	.p2align	2, 0x0
                                        ; -- End function
	.section	__TEXT,__text,regular,pure_instructions
	.private_extern	__ZNSt3__13mapIiiNS_4lessIiEENS_9allocatorINS_4pairIKiiEEEEEC1B8ne180100Ev ; -- Begin function _ZNSt3__13mapIiiNS_4lessIiEENS_9allocatorINS_4pairIKiiEEEEEC1B8ne180100Ev
	.globl	__ZNSt3__13mapIiiNS_4lessIiEENS_9allocatorINS_4pairIKiiEEEEEC1B8ne180100Ev
	.weak_def_can_be_hidden	__ZNSt3__13mapIiiNS_4lessIiEENS_9allocatorINS_4pairIKiiEEEEEC1B8ne180100Ev
	.p2align	2
__ZNSt3__13mapIiiNS_4lessIiEENS_9allocatorINS_4pairIKiiEEEEEC1B8ne180100Ev: ; @_ZNSt3__13mapIiiNS_4lessIiEENS_9allocatorINS_4pairIKiiEEEEEC1B8ne180100Ev
	.cfi_startproc
; %bb.0:
	sub	sp, sp, #32
	stp	x29, x30, [sp, #16]             ; 16-byte Folded Spill
	add	x29, sp, #16
	.cfi_def_cfa w29, 16
	.cfi_offset w30, -8
	.cfi_offset w29, -16
	str	x0, [sp, #8]
	ldr	x0, [sp, #8]
	str	x0, [sp]                        ; 8-byte Folded Spill
	bl	__ZNSt3__13mapIiiNS_4lessIiEENS_9allocatorINS_4pairIKiiEEEEEC2B8ne180100Ev
	ldr	x0, [sp]                        ; 8-byte Folded Reload
	ldp	x29, x30, [sp, #16]             ; 16-byte Folded Reload
	add	sp, sp, #32
	ret
	.cfi_endproc
                                        ; -- End function
	.private_extern	__ZNSt3__13mapIiiNS_4lessIiEENS_9allocatorINS_4pairIKiiEEEEEixERS5_ ; -- Begin function _ZNSt3__13mapIiiNS_4lessIiEENS_9allocatorINS_4pairIKiiEEEEEixERS5_
	.globl	__ZNSt3__13mapIiiNS_4lessIiEENS_9allocatorINS_4pairIKiiEEEEEixERS5_
	.weak_definition	__ZNSt3__13mapIiiNS_4lessIiEENS_9allocatorINS_4pairIKiiEEEEEixERS5_
	.p2align	2
__ZNSt3__13mapIiiNS_4lessIiEENS_9allocatorINS_4pairIKiiEEEEEixERS5_: ; @_ZNSt3__13mapIiiNS_4lessIiEENS_9allocatorINS_4pairIKiiEEEEEixERS5_
	.cfi_startproc
; %bb.0:
	sub	sp, sp, #112
	stp	x29, x30, [sp, #96]             ; 16-byte Folded Spill
	add	x29, sp, #96
	.cfi_def_cfa w29, 16
	.cfi_offset w30, -8
	.cfi_offset w29, -16
	stur	x0, [x29, #-8]
	stur	x1, [x29, #-16]
	ldur	x0, [x29, #-8]
	str	x0, [sp, #24]                   ; 8-byte Folded Spill
	ldur	x2, [x29, #-16]
	sub	x1, x29, #24
	bl	__ZNSt3__16__treeINS_12__value_typeIiiEENS_19__map_value_compareIiS2_NS_4lessIiEELb1EEENS_9allocatorIS2_EEE12__find_equalIiEERPNS_16__tree_node_baseIPvEERPNS_15__tree_end_nodeISE_EERKT_
	stur	x0, [x29, #-32]
	ldur	x8, [x29, #-32]
	ldr	x8, [x8]
	stur	x8, [x29, #-40]
	ldur	x8, [x29, #-32]
	ldr	x8, [x8]
	subs	x8, x8, #0
	cset	w8, ne
	tbnz	w8, #0, LBB2_2
	b	LBB2_1
LBB2_1:
	ldr	x0, [sp, #24]                   ; 8-byte Folded Reload
	ldur	x1, [x29, #-16]
	add	x8, sp, #32
	str	x8, [sp, #16]                   ; 8-byte Folded Spill
	bl	__ZNSt3__13mapIiiNS_4lessIiEENS_9allocatorINS_4pairIKiiEEEEE25__construct_node_with_keyERS5_
	ldr	x0, [sp, #16]                   ; 8-byte Folded Reload
	ldur	x8, [x29, #-24]
	str	x8, [sp]                        ; 8-byte Folded Spill
	ldur	x8, [x29, #-32]
	str	x8, [sp, #8]                    ; 8-byte Folded Spill
	bl	__ZNKSt3__110unique_ptrINS_11__tree_nodeINS_12__value_typeIiiEEPvEENS_21__map_node_destructorINS_9allocatorIS5_EEEEE3getB8ne180100Ev
	ldr	x1, [sp]                        ; 8-byte Folded Reload
	ldr	x2, [sp, #8]                    ; 8-byte Folded Reload
	mov	x3, x0
	ldr	x0, [sp, #24]                   ; 8-byte Folded Reload
	bl	__ZNSt3__16__treeINS_12__value_typeIiiEENS_19__map_value_compareIiS2_NS_4lessIiEELb1EEENS_9allocatorIS2_EEE16__insert_node_atEPNS_15__tree_end_nodeIPNS_16__tree_node_baseIPvEEEERSE_SE_
	ldr	x0, [sp, #16]                   ; 8-byte Folded Reload
	bl	__ZNSt3__110unique_ptrINS_11__tree_nodeINS_12__value_typeIiiEEPvEENS_21__map_node_destructorINS_9allocatorIS5_EEEEE7releaseB8ne180100Ev
	mov	x8, x0
	ldr	x0, [sp, #16]                   ; 8-byte Folded Reload
	stur	x8, [x29, #-40]
	bl	__ZNSt3__110unique_ptrINS_11__tree_nodeINS_12__value_typeIiiEEPvEENS_21__map_node_destructorINS_9allocatorIS5_EEEEED1B8ne180100Ev
	b	LBB2_2
LBB2_2:
	ldur	x8, [x29, #-40]
	add	x0, x8, #28
	bl	__ZNSt3__112__value_typeIiiE11__get_valueB8ne180100Ev
	add	x0, x0, #4
	ldp	x29, x30, [sp, #96]             ; 16-byte Folded Reload
	add	sp, sp, #112
	ret
	.cfi_endproc
                                        ; -- End function
	.private_extern	__ZNSt3__13mapIiiNS_4lessIiEENS_9allocatorINS_4pairIKiiEEEEED1B8ne180100Ev ; -- Begin function _ZNSt3__13mapIiiNS_4lessIiEENS_9allocatorINS_4pairIKiiEEEEED1B8ne180100Ev
	.globl	__ZNSt3__13mapIiiNS_4lessIiEENS_9allocatorINS_4pairIKiiEEEEED1B8ne180100Ev
	.weak_def_can_be_hidden	__ZNSt3__13mapIiiNS_4lessIiEENS_9allocatorINS_4pairIKiiEEEEED1B8ne180100Ev
	.p2align	2
__ZNSt3__13mapIiiNS_4lessIiEENS_9allocatorINS_4pairIKiiEEEEED1B8ne180100Ev: ; @_ZNSt3__13mapIiiNS_4lessIiEENS_9allocatorINS_4pairIKiiEEEEED1B8ne180100Ev
	.cfi_startproc
; %bb.0:
	sub	sp, sp, #32
	stp	x29, x30, [sp, #16]             ; 16-byte Folded Spill
	add	x29, sp, #16
	.cfi_def_cfa w29, 16
	.cfi_offset w30, -8
	.cfi_offset w29, -16
	str	x0, [sp, #8]
	ldr	x0, [sp, #8]
	str	x0, [sp]                        ; 8-byte Folded Spill
	bl	__ZNSt3__13mapIiiNS_4lessIiEENS_9allocatorINS_4pairIKiiEEEEED2B8ne180100Ev
	ldr	x0, [sp]                        ; 8-byte Folded Reload
	ldp	x29, x30, [sp, #16]             ; 16-byte Folded Reload
	add	sp, sp, #32
	ret
	.cfi_endproc
                                        ; -- End function
	.private_extern	___clang_call_terminate ; -- Begin function __clang_call_terminate
	.globl	___clang_call_terminate
	.weak_definition	___clang_call_terminate
	.p2align	2
___clang_call_terminate:                ; @__clang_call_terminate
	.cfi_startproc
; %bb.0:
	stp	x29, x30, [sp, #-16]!           ; 16-byte Folded Spill
	mov	x29, sp
	.cfi_def_cfa w29, 16
	.cfi_offset w30, -8
	.cfi_offset w29, -16
	bl	___cxa_begin_catch
	bl	__ZSt9terminatev
	.cfi_endproc
                                        ; -- End function
	.private_extern	__ZNSt3__13mapIiiNS_4lessIiEENS_9allocatorINS_4pairIKiiEEEEEC2B8ne180100Ev ; -- Begin function _ZNSt3__13mapIiiNS_4lessIiEENS_9allocatorINS_4pairIKiiEEEEEC2B8ne180100Ev
	.globl	__ZNSt3__13mapIiiNS_4lessIiEENS_9allocatorINS_4pairIKiiEEEEEC2B8ne180100Ev
	.weak_def_can_be_hidden	__ZNSt3__13mapIiiNS_4lessIiEENS_9allocatorINS_4pairIKiiEEEEEC2B8ne180100Ev
	.p2align	2
__ZNSt3__13mapIiiNS_4lessIiEENS_9allocatorINS_4pairIKiiEEEEEC2B8ne180100Ev: ; @_ZNSt3__13mapIiiNS_4lessIiEENS_9allocatorINS_4pairIKiiEEEEEC2B8ne180100Ev
	.cfi_startproc
; %bb.0:
	sub	sp, sp, #48
	stp	x29, x30, [sp, #32]             ; 16-byte Folded Spill
	add	x29, sp, #32
	.cfi_def_cfa w29, 16
	.cfi_offset w30, -8
	.cfi_offset w29, -16
	stur	x0, [x29, #-8]
	ldur	x8, [x29, #-8]
	str	x8, [sp, #8]                    ; 8-byte Folded Spill
	sub	x0, x29, #9
	str	x0, [sp]                        ; 8-byte Folded Spill
	bl	__ZNSt3__119__map_value_compareIiNS_12__value_typeIiiEENS_4lessIiEELb1EEC1B8ne180100ES4_
	ldr	x0, [sp, #8]                    ; 8-byte Folded Reload
	ldr	x1, [sp]                        ; 8-byte Folded Reload
	bl	__ZNSt3__16__treeINS_12__value_typeIiiEENS_19__map_value_compareIiS2_NS_4lessIiEELb1EEENS_9allocatorIS2_EEEC1ERKS6_
	ldr	x0, [sp, #8]                    ; 8-byte Folded Reload
	ldp	x29, x30, [sp, #32]             ; 16-byte Folded Reload
	add	sp, sp, #48
	ret
	.cfi_endproc
                                        ; -- End function
	.private_extern	__ZNSt3__119__map_value_compareIiNS_12__value_typeIiiEENS_4lessIiEELb1EEC1B8ne180100ES4_ ; -- Begin function _ZNSt3__119__map_value_compareIiNS_12__value_typeIiiEENS_4lessIiEELb1EEC1B8ne180100ES4_
	.globl	__ZNSt3__119__map_value_compareIiNS_12__value_typeIiiEENS_4lessIiEELb1EEC1B8ne180100ES4_
	.weak_def_can_be_hidden	__ZNSt3__119__map_value_compareIiNS_12__value_typeIiiEENS_4lessIiEELb1EEC1B8ne180100ES4_
	.p2align	2
__ZNSt3__119__map_value_compareIiNS_12__value_typeIiiEENS_4lessIiEELb1EEC1B8ne180100ES4_: ; @_ZNSt3__119__map_value_compareIiNS_12__value_typeIiiEENS_4lessIiEELb1EEC1B8ne180100ES4_
	.cfi_startproc
; %bb.0:
	sub	sp, sp, #48
	stp	x29, x30, [sp, #32]             ; 16-byte Folded Spill
	add	x29, sp, #32
	.cfi_def_cfa w29, 16
	.cfi_offset w30, -8
	.cfi_offset w29, -16
	str	x0, [sp, #16]
	ldr	x0, [sp, #16]
	str	x0, [sp, #8]                    ; 8-byte Folded Spill
	bl	__ZNSt3__119__map_value_compareIiNS_12__value_typeIiiEENS_4lessIiEELb1EEC2B8ne180100ES4_
	ldr	x0, [sp, #8]                    ; 8-byte Folded Reload
	ldp	x29, x30, [sp, #32]             ; 16-byte Folded Reload
	add	sp, sp, #48
	ret
	.cfi_endproc
                                        ; -- End function
	.private_extern	__ZNSt3__16__treeINS_12__value_typeIiiEENS_19__map_value_compareIiS2_NS_4lessIiEELb1EEENS_9allocatorIS2_EEEC1ERKS6_ ; -- Begin function _ZNSt3__16__treeINS_12__value_typeIiiEENS_19__map_value_compareIiS2_NS_4lessIiEELb1EEENS_9allocatorIS2_EEEC1ERKS6_
	.globl	__ZNSt3__16__treeINS_12__value_typeIiiEENS_19__map_value_compareIiS2_NS_4lessIiEELb1EEENS_9allocatorIS2_EEEC1ERKS6_
	.weak_def_can_be_hidden	__ZNSt3__16__treeINS_12__value_typeIiiEENS_19__map_value_compareIiS2_NS_4lessIiEELb1EEENS_9allocatorIS2_EEEC1ERKS6_
	.p2align	2
__ZNSt3__16__treeINS_12__value_typeIiiEENS_19__map_value_compareIiS2_NS_4lessIiEELb1EEENS_9allocatorIS2_EEEC1ERKS6_: ; @_ZNSt3__16__treeINS_12__value_typeIiiEENS_19__map_value_compareIiS2_NS_4lessIiEELb1EEENS_9allocatorIS2_EEEC1ERKS6_
	.cfi_startproc
; %bb.0:
	sub	sp, sp, #48
	stp	x29, x30, [sp, #32]             ; 16-byte Folded Spill
	add	x29, sp, #32
	.cfi_def_cfa w29, 16
	.cfi_offset w30, -8
	.cfi_offset w29, -16
	stur	x0, [x29, #-8]
	str	x1, [sp, #16]
	ldur	x0, [x29, #-8]
	str	x0, [sp, #8]                    ; 8-byte Folded Spill
	ldr	x1, [sp, #16]
	bl	__ZNSt3__16__treeINS_12__value_typeIiiEENS_19__map_value_compareIiS2_NS_4lessIiEELb1EEENS_9allocatorIS2_EEEC2ERKS6_
	ldr	x0, [sp, #8]                    ; 8-byte Folded Reload
	ldp	x29, x30, [sp, #32]             ; 16-byte Folded Reload
	add	sp, sp, #48
	ret
	.cfi_endproc
                                        ; -- End function
	.private_extern	__ZNSt3__119__map_value_compareIiNS_12__value_typeIiiEENS_4lessIiEELb1EEC2B8ne180100ES4_ ; -- Begin function _ZNSt3__119__map_value_compareIiNS_12__value_typeIiiEENS_4lessIiEELb1EEC2B8ne180100ES4_
	.globl	__ZNSt3__119__map_value_compareIiNS_12__value_typeIiiEENS_4lessIiEELb1EEC2B8ne180100ES4_
	.weak_def_can_be_hidden	__ZNSt3__119__map_value_compareIiNS_12__value_typeIiiEENS_4lessIiEELb1EEC2B8ne180100ES4_
	.p2align	2
__ZNSt3__119__map_value_compareIiNS_12__value_typeIiiEENS_4lessIiEELb1EEC2B8ne180100ES4_: ; @_ZNSt3__119__map_value_compareIiNS_12__value_typeIiiEENS_4lessIiEELb1EEC2B8ne180100ES4_
	.cfi_startproc
; %bb.0:
	sub	sp, sp, #16
	.cfi_def_cfa_offset 16
	str	x0, [sp]
	ldr	x0, [sp]
	add	sp, sp, #16
	ret
	.cfi_endproc
                                        ; -- End function
	.private_extern	__ZNSt3__16__treeINS_12__value_typeIiiEENS_19__map_value_compareIiS2_NS_4lessIiEELb1EEENS_9allocatorIS2_EEEC2ERKS6_ ; -- Begin function _ZNSt3__16__treeINS_12__value_typeIiiEENS_19__map_value_compareIiS2_NS_4lessIiEELb1EEENS_9allocatorIS2_EEEC2ERKS6_
	.globl	__ZNSt3__16__treeINS_12__value_typeIiiEENS_19__map_value_compareIiS2_NS_4lessIiEELb1EEENS_9allocatorIS2_EEEC2ERKS6_
	.weak_def_can_be_hidden	__ZNSt3__16__treeINS_12__value_typeIiiEENS_19__map_value_compareIiS2_NS_4lessIiEELb1EEENS_9allocatorIS2_EEEC2ERKS6_
	.p2align	2
__ZNSt3__16__treeINS_12__value_typeIiiEENS_19__map_value_compareIiS2_NS_4lessIiEELb1EEENS_9allocatorIS2_EEEC2ERKS6_: ; @_ZNSt3__16__treeINS_12__value_typeIiiEENS_19__map_value_compareIiS2_NS_4lessIiEELb1EEENS_9allocatorIS2_EEEC2ERKS6_
	.cfi_startproc
; %bb.0:
	sub	sp, sp, #64
	stp	x29, x30, [sp, #48]             ; 16-byte Folded Spill
	add	x29, sp, #48
	.cfi_def_cfa w29, 16
	.cfi_offset w30, -8
	.cfi_offset w29, -16
	stur	x0, [x29, #-8]
	stur	x1, [x29, #-16]
	ldur	x8, [x29, #-8]
	str	x8, [sp, #16]                   ; 8-byte Folded Spill
	add	x0, x8, #8
	bl	__ZNSt3__117__compressed_pairINS_15__tree_end_nodeIPNS_16__tree_node_baseIPvEEEENS_9allocatorINS_11__tree_nodeINS_12__value_typeIiiEES3_EEEEEC1B8ne180100ILb1EvEEv
	ldr	x8, [sp, #16]                   ; 8-byte Folded Reload
	sub	x1, x29, #20
	stur	wzr, [x29, #-20]
	ldur	x2, [x29, #-16]
	add	x0, x8, #16
	bl	__ZNSt3__117__compressed_pairImNS_19__map_value_compareIiNS_12__value_typeIiiEENS_4lessIiEELb1EEEEC1B8ne180100IiRKS6_EEOT_OT0_
	ldr	x0, [sp, #16]                   ; 8-byte Folded Reload
	bl	__ZNSt3__16__treeINS_12__value_typeIiiEENS_19__map_value_compareIiS2_NS_4lessIiEELb1EEENS_9allocatorIS2_EEE10__end_nodeB8ne180100Ev
	mov	x1, x0
	ldr	x0, [sp, #16]                   ; 8-byte Folded Reload
	str	x1, [sp, #8]                    ; 8-byte Folded Spill
	bl	__ZNSt3__16__treeINS_12__value_typeIiiEENS_19__map_value_compareIiS2_NS_4lessIiEELb1EEENS_9allocatorIS2_EEE12__begin_nodeB8ne180100Ev
	ldr	x8, [sp, #8]                    ; 8-byte Folded Reload
	mov	x9, x0
	ldr	x0, [sp, #16]                   ; 8-byte Folded Reload
	str	x8, [x9]
	ldp	x29, x30, [sp, #48]             ; 16-byte Folded Reload
	add	sp, sp, #64
	ret
	.cfi_endproc
                                        ; -- End function
	.globl	__ZNSt3__117__compressed_pairINS_15__tree_end_nodeIPNS_16__tree_node_baseIPvEEEENS_9allocatorINS_11__tree_nodeINS_12__value_typeIiiEES3_EEEEEC1B8ne180100ILb1EvEEv ; -- Begin function _ZNSt3__117__compressed_pairINS_15__tree_end_nodeIPNS_16__tree_node_baseIPvEEEENS_9allocatorINS_11__tree_nodeINS_12__value_typeIiiEES3_EEEEEC1B8ne180100ILb1EvEEv
	.weak_def_can_be_hidden	__ZNSt3__117__compressed_pairINS_15__tree_end_nodeIPNS_16__tree_node_baseIPvEEEENS_9allocatorINS_11__tree_nodeINS_12__value_typeIiiEES3_EEEEEC1B8ne180100ILb1EvEEv
	.p2align	2
__ZNSt3__117__compressed_pairINS_15__tree_end_nodeIPNS_16__tree_node_baseIPvEEEENS_9allocatorINS_11__tree_nodeINS_12__value_typeIiiEES3_EEEEEC1B8ne180100ILb1EvEEv: ; @_ZNSt3__117__compressed_pairINS_15__tree_end_nodeIPNS_16__tree_node_baseIPvEEEENS_9allocatorINS_11__tree_nodeINS_12__value_typeIiiEES3_EEEEEC1B8ne180100ILb1EvEEv
	.cfi_startproc
; %bb.0:
	sub	sp, sp, #32
	stp	x29, x30, [sp, #16]             ; 16-byte Folded Spill
	add	x29, sp, #16
	.cfi_def_cfa w29, 16
	.cfi_offset w30, -8
	.cfi_offset w29, -16
	str	x0, [sp, #8]
	ldr	x0, [sp, #8]
	str	x0, [sp]                        ; 8-byte Folded Spill
	bl	__ZNSt3__117__compressed_pairINS_15__tree_end_nodeIPNS_16__tree_node_baseIPvEEEENS_9allocatorINS_11__tree_nodeINS_12__value_typeIiiEES3_EEEEEC2B8ne180100ILb1EvEEv
	ldr	x0, [sp]                        ; 8-byte Folded Reload
	ldp	x29, x30, [sp, #16]             ; 16-byte Folded Reload
	add	sp, sp, #32
	ret
	.cfi_endproc
                                        ; -- End function
	.globl	__ZNSt3__117__compressed_pairImNS_19__map_value_compareIiNS_12__value_typeIiiEENS_4lessIiEELb1EEEEC1B8ne180100IiRKS6_EEOT_OT0_ ; -- Begin function _ZNSt3__117__compressed_pairImNS_19__map_value_compareIiNS_12__value_typeIiiEENS_4lessIiEELb1EEEEC1B8ne180100IiRKS6_EEOT_OT0_
	.weak_def_can_be_hidden	__ZNSt3__117__compressed_pairImNS_19__map_value_compareIiNS_12__value_typeIiiEENS_4lessIiEELb1EEEEC1B8ne180100IiRKS6_EEOT_OT0_
	.p2align	2
__ZNSt3__117__compressed_pairImNS_19__map_value_compareIiNS_12__value_typeIiiEENS_4lessIiEELb1EEEEC1B8ne180100IiRKS6_EEOT_OT0_: ; @_ZNSt3__117__compressed_pairImNS_19__map_value_compareIiNS_12__value_typeIiiEENS_4lessIiEELb1EEEEC1B8ne180100IiRKS6_EEOT_OT0_
	.cfi_startproc
; %bb.0:
	sub	sp, sp, #48
	stp	x29, x30, [sp, #32]             ; 16-byte Folded Spill
	add	x29, sp, #32
	.cfi_def_cfa w29, 16
	.cfi_offset w30, -8
	.cfi_offset w29, -16
	stur	x0, [x29, #-8]
	str	x1, [sp, #16]
	str	x2, [sp, #8]
	ldur	x0, [x29, #-8]
	str	x0, [sp]                        ; 8-byte Folded Spill
	ldr	x1, [sp, #16]
	ldr	x2, [sp, #8]
	bl	__ZNSt3__117__compressed_pairImNS_19__map_value_compareIiNS_12__value_typeIiiEENS_4lessIiEELb1EEEEC2B8ne180100IiRKS6_EEOT_OT0_
	ldr	x0, [sp]                        ; 8-byte Folded Reload
	ldp	x29, x30, [sp, #32]             ; 16-byte Folded Reload
	add	sp, sp, #48
	ret
	.cfi_endproc
                                        ; -- End function
	.private_extern	__ZNSt3__16__treeINS_12__value_typeIiiEENS_19__map_value_compareIiS2_NS_4lessIiEELb1EEENS_9allocatorIS2_EEE10__end_nodeB8ne180100Ev ; -- Begin function _ZNSt3__16__treeINS_12__value_typeIiiEENS_19__map_value_compareIiS2_NS_4lessIiEELb1EEENS_9allocatorIS2_EEE10__end_nodeB8ne180100Ev
	.globl	__ZNSt3__16__treeINS_12__value_typeIiiEENS_19__map_value_compareIiS2_NS_4lessIiEELb1EEENS_9allocatorIS2_EEE10__end_nodeB8ne180100Ev
	.weak_definition	__ZNSt3__16__treeINS_12__value_typeIiiEENS_19__map_value_compareIiS2_NS_4lessIiEELb1EEENS_9allocatorIS2_EEE10__end_nodeB8ne180100Ev
	.p2align	2
__ZNSt3__16__treeINS_12__value_typeIiiEENS_19__map_value_compareIiS2_NS_4lessIiEELb1EEENS_9allocatorIS2_EEE10__end_nodeB8ne180100Ev: ; @_ZNSt3__16__treeINS_12__value_typeIiiEENS_19__map_value_compareIiS2_NS_4lessIiEELb1EEENS_9allocatorIS2_EEE10__end_nodeB8ne180100Ev
	.cfi_startproc
; %bb.0:
	sub	sp, sp, #32
	stp	x29, x30, [sp, #16]             ; 16-byte Folded Spill
	add	x29, sp, #16
	.cfi_def_cfa w29, 16
	.cfi_offset w30, -8
	.cfi_offset w29, -16
	str	x0, [sp, #8]
	ldr	x8, [sp, #8]
	add	x0, x8, #8
	bl	__ZNSt3__117__compressed_pairINS_15__tree_end_nodeIPNS_16__tree_node_baseIPvEEEENS_9allocatorINS_11__tree_nodeINS_12__value_typeIiiEES3_EEEEE5firstB8ne180100Ev
	bl	__ZNSt3__114pointer_traitsIPNS_15__tree_end_nodeIPNS_16__tree_node_baseIPvEEEEE10pointer_toB8ne180100ERS6_
	ldp	x29, x30, [sp, #16]             ; 16-byte Folded Reload
	add	sp, sp, #32
	ret
	.cfi_endproc
                                        ; -- End function
	.private_extern	__ZNSt3__16__treeINS_12__value_typeIiiEENS_19__map_value_compareIiS2_NS_4lessIiEELb1EEENS_9allocatorIS2_EEE12__begin_nodeB8ne180100Ev ; -- Begin function _ZNSt3__16__treeINS_12__value_typeIiiEENS_19__map_value_compareIiS2_NS_4lessIiEELb1EEENS_9allocatorIS2_EEE12__begin_nodeB8ne180100Ev
	.globl	__ZNSt3__16__treeINS_12__value_typeIiiEENS_19__map_value_compareIiS2_NS_4lessIiEELb1EEENS_9allocatorIS2_EEE12__begin_nodeB8ne180100Ev
	.weak_definition	__ZNSt3__16__treeINS_12__value_typeIiiEENS_19__map_value_compareIiS2_NS_4lessIiEELb1EEENS_9allocatorIS2_EEE12__begin_nodeB8ne180100Ev
	.p2align	2
__ZNSt3__16__treeINS_12__value_typeIiiEENS_19__map_value_compareIiS2_NS_4lessIiEELb1EEENS_9allocatorIS2_EEE12__begin_nodeB8ne180100Ev: ; @_ZNSt3__16__treeINS_12__value_typeIiiEENS_19__map_value_compareIiS2_NS_4lessIiEELb1EEENS_9allocatorIS2_EEE12__begin_nodeB8ne180100Ev
	.cfi_startproc
; %bb.0:
	sub	sp, sp, #16
	.cfi_def_cfa_offset 16
	str	x0, [sp, #8]
	ldr	x0, [sp, #8]
	add	sp, sp, #16
	ret
	.cfi_endproc
                                        ; -- End function
	.globl	__ZNSt3__117__compressed_pairINS_15__tree_end_nodeIPNS_16__tree_node_baseIPvEEEENS_9allocatorINS_11__tree_nodeINS_12__value_typeIiiEES3_EEEEEC2B8ne180100ILb1EvEEv ; -- Begin function _ZNSt3__117__compressed_pairINS_15__tree_end_nodeIPNS_16__tree_node_baseIPvEEEENS_9allocatorINS_11__tree_nodeINS_12__value_typeIiiEES3_EEEEEC2B8ne180100ILb1EvEEv
	.weak_def_can_be_hidden	__ZNSt3__117__compressed_pairINS_15__tree_end_nodeIPNS_16__tree_node_baseIPvEEEENS_9allocatorINS_11__tree_nodeINS_12__value_typeIiiEES3_EEEEEC2B8ne180100ILb1EvEEv
	.p2align	2
__ZNSt3__117__compressed_pairINS_15__tree_end_nodeIPNS_16__tree_node_baseIPvEEEENS_9allocatorINS_11__tree_nodeINS_12__value_typeIiiEES3_EEEEEC2B8ne180100ILb1EvEEv: ; @_ZNSt3__117__compressed_pairINS_15__tree_end_nodeIPNS_16__tree_node_baseIPvEEEENS_9allocatorINS_11__tree_nodeINS_12__value_typeIiiEES3_EEEEEC2B8ne180100ILb1EvEEv
	.cfi_startproc
; %bb.0:
	sub	sp, sp, #48
	stp	x29, x30, [sp, #32]             ; 16-byte Folded Spill
	add	x29, sp, #32
	.cfi_def_cfa w29, 16
	.cfi_offset w30, -8
	.cfi_offset w29, -16
	stur	x0, [x29, #-8]
	ldur	x0, [x29, #-8]
	str	x0, [sp, #8]                    ; 8-byte Folded Spill
	bl	__ZNSt3__122__compressed_pair_elemINS_15__tree_end_nodeIPNS_16__tree_node_baseIPvEEEELi0ELb0EEC2B8ne180100ENS_16__value_init_tagE
	ldr	x0, [sp, #8]                    ; 8-byte Folded Reload
	bl	__ZNSt3__122__compressed_pair_elemINS_9allocatorINS_11__tree_nodeINS_12__value_typeIiiEEPvEEEELi1ELb1EEC2B8ne180100ENS_16__value_init_tagE
	ldr	x0, [sp, #8]                    ; 8-byte Folded Reload
	ldp	x29, x30, [sp, #32]             ; 16-byte Folded Reload
	add	sp, sp, #48
	ret
	.cfi_endproc
                                        ; -- End function
	.private_extern	__ZNSt3__122__compressed_pair_elemINS_15__tree_end_nodeIPNS_16__tree_node_baseIPvEEEELi0ELb0EEC2B8ne180100ENS_16__value_init_tagE ; -- Begin function _ZNSt3__122__compressed_pair_elemINS_15__tree_end_nodeIPNS_16__tree_node_baseIPvEEEELi0ELb0EEC2B8ne180100ENS_16__value_init_tagE
	.globl	__ZNSt3__122__compressed_pair_elemINS_15__tree_end_nodeIPNS_16__tree_node_baseIPvEEEELi0ELb0EEC2B8ne180100ENS_16__value_init_tagE
	.weak_def_can_be_hidden	__ZNSt3__122__compressed_pair_elemINS_15__tree_end_nodeIPNS_16__tree_node_baseIPvEEEELi0ELb0EEC2B8ne180100ENS_16__value_init_tagE
	.p2align	2
__ZNSt3__122__compressed_pair_elemINS_15__tree_end_nodeIPNS_16__tree_node_baseIPvEEEELi0ELb0EEC2B8ne180100ENS_16__value_init_tagE: ; @_ZNSt3__122__compressed_pair_elemINS_15__tree_end_nodeIPNS_16__tree_node_baseIPvEEEELi0ELb0EEC2B8ne180100ENS_16__value_init_tagE
	.cfi_startproc
; %bb.0:
	sub	sp, sp, #48
	stp	x29, x30, [sp, #32]             ; 16-byte Folded Spill
	add	x29, sp, #32
	.cfi_def_cfa w29, 16
	.cfi_offset w30, -8
	.cfi_offset w29, -16
	str	x0, [sp, #16]
	ldr	x0, [sp, #16]
	str	x0, [sp, #8]                    ; 8-byte Folded Spill
	bl	__ZNSt3__115__tree_end_nodeIPNS_16__tree_node_baseIPvEEEC1B8ne180100Ev
	ldr	x0, [sp, #8]                    ; 8-byte Folded Reload
	ldp	x29, x30, [sp, #32]             ; 16-byte Folded Reload
	add	sp, sp, #48
	ret
	.cfi_endproc
                                        ; -- End function
	.private_extern	__ZNSt3__122__compressed_pair_elemINS_9allocatorINS_11__tree_nodeINS_12__value_typeIiiEEPvEEEELi1ELb1EEC2B8ne180100ENS_16__value_init_tagE ; -- Begin function _ZNSt3__122__compressed_pair_elemINS_9allocatorINS_11__tree_nodeINS_12__value_typeIiiEEPvEEEELi1ELb1EEC2B8ne180100ENS_16__value_init_tagE
	.globl	__ZNSt3__122__compressed_pair_elemINS_9allocatorINS_11__tree_nodeINS_12__value_typeIiiEEPvEEEELi1ELb1EEC2B8ne180100ENS_16__value_init_tagE
	.weak_def_can_be_hidden	__ZNSt3__122__compressed_pair_elemINS_9allocatorINS_11__tree_nodeINS_12__value_typeIiiEEPvEEEELi1ELb1EEC2B8ne180100ENS_16__value_init_tagE
	.p2align	2
__ZNSt3__122__compressed_pair_elemINS_9allocatorINS_11__tree_nodeINS_12__value_typeIiiEEPvEEEELi1ELb1EEC2B8ne180100ENS_16__value_init_tagE: ; @_ZNSt3__122__compressed_pair_elemINS_9allocatorINS_11__tree_nodeINS_12__value_typeIiiEEPvEEEELi1ELb1EEC2B8ne180100ENS_16__value_init_tagE
	.cfi_startproc
; %bb.0:
	sub	sp, sp, #48
	stp	x29, x30, [sp, #32]             ; 16-byte Folded Spill
	add	x29, sp, #32
	.cfi_def_cfa w29, 16
	.cfi_offset w30, -8
	.cfi_offset w29, -16
	str	x0, [sp, #16]
	ldr	x0, [sp, #16]
	str	x0, [sp, #8]                    ; 8-byte Folded Spill
	bl	__ZNSt3__19allocatorINS_11__tree_nodeINS_12__value_typeIiiEEPvEEEC2B8ne180100Ev
	ldr	x0, [sp, #8]                    ; 8-byte Folded Reload
	ldp	x29, x30, [sp, #32]             ; 16-byte Folded Reload
	add	sp, sp, #48
	ret
	.cfi_endproc
                                        ; -- End function
	.private_extern	__ZNSt3__115__tree_end_nodeIPNS_16__tree_node_baseIPvEEEC1B8ne180100Ev ; -- Begin function _ZNSt3__115__tree_end_nodeIPNS_16__tree_node_baseIPvEEEC1B8ne180100Ev
	.globl	__ZNSt3__115__tree_end_nodeIPNS_16__tree_node_baseIPvEEEC1B8ne180100Ev
	.weak_def_can_be_hidden	__ZNSt3__115__tree_end_nodeIPNS_16__tree_node_baseIPvEEEC1B8ne180100Ev
	.p2align	2
__ZNSt3__115__tree_end_nodeIPNS_16__tree_node_baseIPvEEEC1B8ne180100Ev: ; @_ZNSt3__115__tree_end_nodeIPNS_16__tree_node_baseIPvEEEC1B8ne180100Ev
	.cfi_startproc
; %bb.0:
	sub	sp, sp, #32
	stp	x29, x30, [sp, #16]             ; 16-byte Folded Spill
	add	x29, sp, #16
	.cfi_def_cfa w29, 16
	.cfi_offset w30, -8
	.cfi_offset w29, -16
	str	x0, [sp, #8]
	ldr	x0, [sp, #8]
	str	x0, [sp]                        ; 8-byte Folded Spill
	bl	__ZNSt3__115__tree_end_nodeIPNS_16__tree_node_baseIPvEEEC2B8ne180100Ev
	ldr	x0, [sp]                        ; 8-byte Folded Reload
	ldp	x29, x30, [sp, #16]             ; 16-byte Folded Reload
	add	sp, sp, #32
	ret
	.cfi_endproc
                                        ; -- End function
	.private_extern	__ZNSt3__115__tree_end_nodeIPNS_16__tree_node_baseIPvEEEC2B8ne180100Ev ; -- Begin function _ZNSt3__115__tree_end_nodeIPNS_16__tree_node_baseIPvEEEC2B8ne180100Ev
	.globl	__ZNSt3__115__tree_end_nodeIPNS_16__tree_node_baseIPvEEEC2B8ne180100Ev
	.weak_def_can_be_hidden	__ZNSt3__115__tree_end_nodeIPNS_16__tree_node_baseIPvEEEC2B8ne180100Ev
	.p2align	2
__ZNSt3__115__tree_end_nodeIPNS_16__tree_node_baseIPvEEEC2B8ne180100Ev: ; @_ZNSt3__115__tree_end_nodeIPNS_16__tree_node_baseIPvEEEC2B8ne180100Ev
	.cfi_startproc
; %bb.0:
	sub	sp, sp, #16
	.cfi_def_cfa_offset 16
	str	x0, [sp, #8]
	ldr	x0, [sp, #8]
                                        ; kill: def $x8 killed $xzr
	str	xzr, [x0]
	add	sp, sp, #16
	ret
	.cfi_endproc
                                        ; -- End function
	.private_extern	__ZNSt3__19allocatorINS_11__tree_nodeINS_12__value_typeIiiEEPvEEEC2B8ne180100Ev ; -- Begin function _ZNSt3__19allocatorINS_11__tree_nodeINS_12__value_typeIiiEEPvEEEC2B8ne180100Ev
	.globl	__ZNSt3__19allocatorINS_11__tree_nodeINS_12__value_typeIiiEEPvEEEC2B8ne180100Ev
	.weak_def_can_be_hidden	__ZNSt3__19allocatorINS_11__tree_nodeINS_12__value_typeIiiEEPvEEEC2B8ne180100Ev
	.p2align	2
__ZNSt3__19allocatorINS_11__tree_nodeINS_12__value_typeIiiEEPvEEEC2B8ne180100Ev: ; @_ZNSt3__19allocatorINS_11__tree_nodeINS_12__value_typeIiiEEPvEEEC2B8ne180100Ev
	.cfi_startproc
; %bb.0:
	sub	sp, sp, #32
	stp	x29, x30, [sp, #16]             ; 16-byte Folded Spill
	add	x29, sp, #16
	.cfi_def_cfa w29, 16
	.cfi_offset w30, -8
	.cfi_offset w29, -16
	str	x0, [sp, #8]
	ldr	x0, [sp, #8]
	str	x0, [sp]                        ; 8-byte Folded Spill
	bl	__ZNSt3__116__non_trivial_ifILb1ENS_9allocatorINS_11__tree_nodeINS_12__value_typeIiiEEPvEEEEEC2B8ne180100Ev
	ldr	x0, [sp]                        ; 8-byte Folded Reload
	ldp	x29, x30, [sp, #16]             ; 16-byte Folded Reload
	add	sp, sp, #32
	ret
	.cfi_endproc
                                        ; -- End function
	.private_extern	__ZNSt3__116__non_trivial_ifILb1ENS_9allocatorINS_11__tree_nodeINS_12__value_typeIiiEEPvEEEEEC2B8ne180100Ev ; -- Begin function _ZNSt3__116__non_trivial_ifILb1ENS_9allocatorINS_11__tree_nodeINS_12__value_typeIiiEEPvEEEEEC2B8ne180100Ev
	.globl	__ZNSt3__116__non_trivial_ifILb1ENS_9allocatorINS_11__tree_nodeINS_12__value_typeIiiEEPvEEEEEC2B8ne180100Ev
	.weak_def_can_be_hidden	__ZNSt3__116__non_trivial_ifILb1ENS_9allocatorINS_11__tree_nodeINS_12__value_typeIiiEEPvEEEEEC2B8ne180100Ev
	.p2align	2
__ZNSt3__116__non_trivial_ifILb1ENS_9allocatorINS_11__tree_nodeINS_12__value_typeIiiEEPvEEEEEC2B8ne180100Ev: ; @_ZNSt3__116__non_trivial_ifILb1ENS_9allocatorINS_11__tree_nodeINS_12__value_typeIiiEEPvEEEEEC2B8ne180100Ev
	.cfi_startproc
; %bb.0:
	sub	sp, sp, #16
	.cfi_def_cfa_offset 16
	str	x0, [sp, #8]
	ldr	x0, [sp, #8]
	add	sp, sp, #16
	ret
	.cfi_endproc
                                        ; -- End function
	.globl	__ZNSt3__117__compressed_pairImNS_19__map_value_compareIiNS_12__value_typeIiiEENS_4lessIiEELb1EEEEC2B8ne180100IiRKS6_EEOT_OT0_ ; -- Begin function _ZNSt3__117__compressed_pairImNS_19__map_value_compareIiNS_12__value_typeIiiEENS_4lessIiEELb1EEEEC2B8ne180100IiRKS6_EEOT_OT0_
	.weak_def_can_be_hidden	__ZNSt3__117__compressed_pairImNS_19__map_value_compareIiNS_12__value_typeIiiEENS_4lessIiEELb1EEEEC2B8ne180100IiRKS6_EEOT_OT0_
	.p2align	2
__ZNSt3__117__compressed_pairImNS_19__map_value_compareIiNS_12__value_typeIiiEENS_4lessIiEELb1EEEEC2B8ne180100IiRKS6_EEOT_OT0_: ; @_ZNSt3__117__compressed_pairImNS_19__map_value_compareIiNS_12__value_typeIiiEENS_4lessIiEELb1EEEEC2B8ne180100IiRKS6_EEOT_OT0_
	.cfi_startproc
; %bb.0:
	sub	sp, sp, #48
	stp	x29, x30, [sp, #32]             ; 16-byte Folded Spill
	add	x29, sp, #32
	.cfi_def_cfa w29, 16
	.cfi_offset w30, -8
	.cfi_offset w29, -16
	stur	x0, [x29, #-8]
	str	x1, [sp, #16]
	str	x2, [sp, #8]
	ldur	x0, [x29, #-8]
	str	x0, [sp]                        ; 8-byte Folded Spill
	ldr	x1, [sp, #16]
	bl	__ZNSt3__122__compressed_pair_elemImLi0ELb0EEC2B8ne180100IivEEOT_
	ldr	x0, [sp]                        ; 8-byte Folded Reload
	ldr	x1, [sp, #8]
	bl	__ZNSt3__122__compressed_pair_elemINS_19__map_value_compareIiNS_12__value_typeIiiEENS_4lessIiEELb1EEELi1ELb1EEC2B8ne180100IRKS6_vEEOT_
	ldr	x0, [sp]                        ; 8-byte Folded Reload
	ldp	x29, x30, [sp, #32]             ; 16-byte Folded Reload
	add	sp, sp, #48
	ret
	.cfi_endproc
                                        ; -- End function
	.globl	__ZNSt3__122__compressed_pair_elemImLi0ELb0EEC2B8ne180100IivEEOT_ ; -- Begin function _ZNSt3__122__compressed_pair_elemImLi0ELb0EEC2B8ne180100IivEEOT_
	.weak_def_can_be_hidden	__ZNSt3__122__compressed_pair_elemImLi0ELb0EEC2B8ne180100IivEEOT_
	.p2align	2
__ZNSt3__122__compressed_pair_elemImLi0ELb0EEC2B8ne180100IivEEOT_: ; @_ZNSt3__122__compressed_pair_elemImLi0ELb0EEC2B8ne180100IivEEOT_
	.cfi_startproc
; %bb.0:
	sub	sp, sp, #16
	.cfi_def_cfa_offset 16
	str	x0, [sp, #8]
	str	x1, [sp]
	ldr	x0, [sp, #8]
	ldr	x8, [sp]
	ldrsw	x8, [x8]
	str	x8, [x0]
	add	sp, sp, #16
	ret
	.cfi_endproc
                                        ; -- End function
	.globl	__ZNSt3__122__compressed_pair_elemINS_19__map_value_compareIiNS_12__value_typeIiiEENS_4lessIiEELb1EEELi1ELb1EEC2B8ne180100IRKS6_vEEOT_ ; -- Begin function _ZNSt3__122__compressed_pair_elemINS_19__map_value_compareIiNS_12__value_typeIiiEENS_4lessIiEELb1EEELi1ELb1EEC2B8ne180100IRKS6_vEEOT_
	.weak_def_can_be_hidden	__ZNSt3__122__compressed_pair_elemINS_19__map_value_compareIiNS_12__value_typeIiiEENS_4lessIiEELb1EEELi1ELb1EEC2B8ne180100IRKS6_vEEOT_
	.p2align	2
__ZNSt3__122__compressed_pair_elemINS_19__map_value_compareIiNS_12__value_typeIiiEENS_4lessIiEELb1EEELi1ELb1EEC2B8ne180100IRKS6_vEEOT_: ; @_ZNSt3__122__compressed_pair_elemINS_19__map_value_compareIiNS_12__value_typeIiiEENS_4lessIiEELb1EEELi1ELb1EEC2B8ne180100IRKS6_vEEOT_
	.cfi_startproc
; %bb.0:
	sub	sp, sp, #16
	.cfi_def_cfa_offset 16
	str	x0, [sp, #8]
	str	x1, [sp]
	ldr	x0, [sp, #8]
	add	sp, sp, #16
	ret
	.cfi_endproc
                                        ; -- End function
	.private_extern	__ZNSt3__114pointer_traitsIPNS_15__tree_end_nodeIPNS_16__tree_node_baseIPvEEEEE10pointer_toB8ne180100ERS6_ ; -- Begin function _ZNSt3__114pointer_traitsIPNS_15__tree_end_nodeIPNS_16__tree_node_baseIPvEEEEE10pointer_toB8ne180100ERS6_
	.globl	__ZNSt3__114pointer_traitsIPNS_15__tree_end_nodeIPNS_16__tree_node_baseIPvEEEEE10pointer_toB8ne180100ERS6_
	.weak_definition	__ZNSt3__114pointer_traitsIPNS_15__tree_end_nodeIPNS_16__tree_node_baseIPvEEEEE10pointer_toB8ne180100ERS6_
	.p2align	2
__ZNSt3__114pointer_traitsIPNS_15__tree_end_nodeIPNS_16__tree_node_baseIPvEEEEE10pointer_toB8ne180100ERS6_: ; @_ZNSt3__114pointer_traitsIPNS_15__tree_end_nodeIPNS_16__tree_node_baseIPvEEEEE10pointer_toB8ne180100ERS6_
	.cfi_startproc
; %bb.0:
	sub	sp, sp, #16
	.cfi_def_cfa_offset 16
	str	x0, [sp, #8]
	ldr	x0, [sp, #8]
	add	sp, sp, #16
	ret
	.cfi_endproc
                                        ; -- End function
	.private_extern	__ZNSt3__117__compressed_pairINS_15__tree_end_nodeIPNS_16__tree_node_baseIPvEEEENS_9allocatorINS_11__tree_nodeINS_12__value_typeIiiEES3_EEEEE5firstB8ne180100Ev ; -- Begin function _ZNSt3__117__compressed_pairINS_15__tree_end_nodeIPNS_16__tree_node_baseIPvEEEENS_9allocatorINS_11__tree_nodeINS_12__value_typeIiiEES3_EEEEE5firstB8ne180100Ev
	.globl	__ZNSt3__117__compressed_pairINS_15__tree_end_nodeIPNS_16__tree_node_baseIPvEEEENS_9allocatorINS_11__tree_nodeINS_12__value_typeIiiEES3_EEEEE5firstB8ne180100Ev
	.weak_definition	__ZNSt3__117__compressed_pairINS_15__tree_end_nodeIPNS_16__tree_node_baseIPvEEEENS_9allocatorINS_11__tree_nodeINS_12__value_typeIiiEES3_EEEEE5firstB8ne180100Ev
	.p2align	2
__ZNSt3__117__compressed_pairINS_15__tree_end_nodeIPNS_16__tree_node_baseIPvEEEENS_9allocatorINS_11__tree_nodeINS_12__value_typeIiiEES3_EEEEE5firstB8ne180100Ev: ; @_ZNSt3__117__compressed_pairINS_15__tree_end_nodeIPNS_16__tree_node_baseIPvEEEENS_9allocatorINS_11__tree_nodeINS_12__value_typeIiiEES3_EEEEE5firstB8ne180100Ev
	.cfi_startproc
; %bb.0:
	sub	sp, sp, #32
	stp	x29, x30, [sp, #16]             ; 16-byte Folded Spill
	add	x29, sp, #16
	.cfi_def_cfa w29, 16
	.cfi_offset w30, -8
	.cfi_offset w29, -16
	str	x0, [sp, #8]
	ldr	x0, [sp, #8]
	bl	__ZNSt3__122__compressed_pair_elemINS_15__tree_end_nodeIPNS_16__tree_node_baseIPvEEEELi0ELb0EE5__getB8ne180100Ev
	ldp	x29, x30, [sp, #16]             ; 16-byte Folded Reload
	add	sp, sp, #32
	ret
	.cfi_endproc
                                        ; -- End function
	.private_extern	__ZNSt3__122__compressed_pair_elemINS_15__tree_end_nodeIPNS_16__tree_node_baseIPvEEEELi0ELb0EE5__getB8ne180100Ev ; -- Begin function _ZNSt3__122__compressed_pair_elemINS_15__tree_end_nodeIPNS_16__tree_node_baseIPvEEEELi0ELb0EE5__getB8ne180100Ev
	.globl	__ZNSt3__122__compressed_pair_elemINS_15__tree_end_nodeIPNS_16__tree_node_baseIPvEEEELi0ELb0EE5__getB8ne180100Ev
	.weak_definition	__ZNSt3__122__compressed_pair_elemINS_15__tree_end_nodeIPNS_16__tree_node_baseIPvEEEELi0ELb0EE5__getB8ne180100Ev
	.p2align	2
__ZNSt3__122__compressed_pair_elemINS_15__tree_end_nodeIPNS_16__tree_node_baseIPvEEEELi0ELb0EE5__getB8ne180100Ev: ; @_ZNSt3__122__compressed_pair_elemINS_15__tree_end_nodeIPNS_16__tree_node_baseIPvEEEELi0ELb0EE5__getB8ne180100Ev
	.cfi_startproc
; %bb.0:
	sub	sp, sp, #16
	.cfi_def_cfa_offset 16
	str	x0, [sp, #8]
	ldr	x0, [sp, #8]
	add	sp, sp, #16
	ret
	.cfi_endproc
                                        ; -- End function
	.private_extern	__ZNSt3__13mapIiiNS_4lessIiEENS_9allocatorINS_4pairIKiiEEEEED2B8ne180100Ev ; -- Begin function _ZNSt3__13mapIiiNS_4lessIiEENS_9allocatorINS_4pairIKiiEEEEED2B8ne180100Ev
	.globl	__ZNSt3__13mapIiiNS_4lessIiEENS_9allocatorINS_4pairIKiiEEEEED2B8ne180100Ev
	.weak_def_can_be_hidden	__ZNSt3__13mapIiiNS_4lessIiEENS_9allocatorINS_4pairIKiiEEEEED2B8ne180100Ev
	.p2align	2
__ZNSt3__13mapIiiNS_4lessIiEENS_9allocatorINS_4pairIKiiEEEEED2B8ne180100Ev: ; @_ZNSt3__13mapIiiNS_4lessIiEENS_9allocatorINS_4pairIKiiEEEEED2B8ne180100Ev
	.cfi_startproc
; %bb.0:
	sub	sp, sp, #32
	stp	x29, x30, [sp, #16]             ; 16-byte Folded Spill
	add	x29, sp, #16
	.cfi_def_cfa w29, 16
	.cfi_offset w30, -8
	.cfi_offset w29, -16
	str	x0, [sp, #8]
	ldr	x0, [sp, #8]
	str	x0, [sp]                        ; 8-byte Folded Spill
	bl	__ZNSt3__16__treeINS_12__value_typeIiiEENS_19__map_value_compareIiS2_NS_4lessIiEELb1EEENS_9allocatorIS2_EEED1Ev
	ldr	x0, [sp]                        ; 8-byte Folded Reload
	ldp	x29, x30, [sp, #16]             ; 16-byte Folded Reload
	add	sp, sp, #32
	ret
	.cfi_endproc
                                        ; -- End function
	.private_extern	__ZNSt3__16__treeINS_12__value_typeIiiEENS_19__map_value_compareIiS2_NS_4lessIiEELb1EEENS_9allocatorIS2_EEED1Ev ; -- Begin function _ZNSt3__16__treeINS_12__value_typeIiiEENS_19__map_value_compareIiS2_NS_4lessIiEELb1EEENS_9allocatorIS2_EEED1Ev
	.globl	__ZNSt3__16__treeINS_12__value_typeIiiEENS_19__map_value_compareIiS2_NS_4lessIiEELb1EEENS_9allocatorIS2_EEED1Ev
	.weak_def_can_be_hidden	__ZNSt3__16__treeINS_12__value_typeIiiEENS_19__map_value_compareIiS2_NS_4lessIiEELb1EEENS_9allocatorIS2_EEED1Ev
	.p2align	2
__ZNSt3__16__treeINS_12__value_typeIiiEENS_19__map_value_compareIiS2_NS_4lessIiEELb1EEENS_9allocatorIS2_EEED1Ev: ; @_ZNSt3__16__treeINS_12__value_typeIiiEENS_19__map_value_compareIiS2_NS_4lessIiEELb1EEENS_9allocatorIS2_EEED1Ev
	.cfi_startproc
; %bb.0:
	sub	sp, sp, #32
	stp	x29, x30, [sp, #16]             ; 16-byte Folded Spill
	add	x29, sp, #16
	.cfi_def_cfa w29, 16
	.cfi_offset w30, -8
	.cfi_offset w29, -16
	str	x0, [sp, #8]
	ldr	x0, [sp, #8]
	str	x0, [sp]                        ; 8-byte Folded Spill
	bl	__ZNSt3__16__treeINS_12__value_typeIiiEENS_19__map_value_compareIiS2_NS_4lessIiEELb1EEENS_9allocatorIS2_EEED2Ev
	ldr	x0, [sp]                        ; 8-byte Folded Reload
	ldp	x29, x30, [sp, #16]             ; 16-byte Folded Reload
	add	sp, sp, #32
	ret
	.cfi_endproc
                                        ; -- End function
	.private_extern	__ZNSt3__16__treeINS_12__value_typeIiiEENS_19__map_value_compareIiS2_NS_4lessIiEELb1EEENS_9allocatorIS2_EEED2Ev ; -- Begin function _ZNSt3__16__treeINS_12__value_typeIiiEENS_19__map_value_compareIiS2_NS_4lessIiEELb1EEENS_9allocatorIS2_EEED2Ev
	.globl	__ZNSt3__16__treeINS_12__value_typeIiiEENS_19__map_value_compareIiS2_NS_4lessIiEELb1EEENS_9allocatorIS2_EEED2Ev
	.weak_def_can_be_hidden	__ZNSt3__16__treeINS_12__value_typeIiiEENS_19__map_value_compareIiS2_NS_4lessIiEELb1EEENS_9allocatorIS2_EEED2Ev
	.p2align	2
__ZNSt3__16__treeINS_12__value_typeIiiEENS_19__map_value_compareIiS2_NS_4lessIiEELb1EEENS_9allocatorIS2_EEED2Ev: ; @_ZNSt3__16__treeINS_12__value_typeIiiEENS_19__map_value_compareIiS2_NS_4lessIiEELb1EEENS_9allocatorIS2_EEED2Ev
	.cfi_startproc
; %bb.0:
	sub	sp, sp, #32
	stp	x29, x30, [sp, #16]             ; 16-byte Folded Spill
	add	x29, sp, #16
	.cfi_def_cfa w29, 16
	.cfi_offset w30, -8
	.cfi_offset w29, -16
	str	x0, [sp, #8]
	ldr	x0, [sp, #8]
	str	x0, [sp]                        ; 8-byte Folded Spill
	bl	__ZNKSt3__16__treeINS_12__value_typeIiiEENS_19__map_value_compareIiS2_NS_4lessIiEELb1EEENS_9allocatorIS2_EEE6__rootB8ne180100Ev
	mov	x1, x0
	ldr	x0, [sp]                        ; 8-byte Folded Reload
	bl	__ZNSt3__16__treeINS_12__value_typeIiiEENS_19__map_value_compareIiS2_NS_4lessIiEELb1EEENS_9allocatorIS2_EEE7destroyEPNS_11__tree_nodeIS2_PvEE
	ldr	x0, [sp]                        ; 8-byte Folded Reload
	ldp	x29, x30, [sp, #16]             ; 16-byte Folded Reload
	add	sp, sp, #32
	ret
	.cfi_endproc
                                        ; -- End function
	.private_extern	__ZNSt3__16__treeINS_12__value_typeIiiEENS_19__map_value_compareIiS2_NS_4lessIiEELb1EEENS_9allocatorIS2_EEE7destroyEPNS_11__tree_nodeIS2_PvEE ; -- Begin function _ZNSt3__16__treeINS_12__value_typeIiiEENS_19__map_value_compareIiS2_NS_4lessIiEELb1EEENS_9allocatorIS2_EEE7destroyEPNS_11__tree_nodeIS2_PvEE
	.globl	__ZNSt3__16__treeINS_12__value_typeIiiEENS_19__map_value_compareIiS2_NS_4lessIiEELb1EEENS_9allocatorIS2_EEE7destroyEPNS_11__tree_nodeIS2_PvEE
	.weak_definition	__ZNSt3__16__treeINS_12__value_typeIiiEENS_19__map_value_compareIiS2_NS_4lessIiEELb1EEENS_9allocatorIS2_EEE7destroyEPNS_11__tree_nodeIS2_PvEE
	.p2align	2
__ZNSt3__16__treeINS_12__value_typeIiiEENS_19__map_value_compareIiS2_NS_4lessIiEELb1EEENS_9allocatorIS2_EEE7destroyEPNS_11__tree_nodeIS2_PvEE: ; @_ZNSt3__16__treeINS_12__value_typeIiiEENS_19__map_value_compareIiS2_NS_4lessIiEELb1EEENS_9allocatorIS2_EEE7destroyEPNS_11__tree_nodeIS2_PvEE
Lfunc_begin1:
	.cfi_startproc
	.cfi_personality 155, ___gxx_personality_v0
	.cfi_lsda 16, Lexception1
; %bb.0:
	sub	sp, sp, #80
	stp	x29, x30, [sp, #64]             ; 16-byte Folded Spill
	add	x29, sp, #64
	.cfi_def_cfa w29, 16
	.cfi_offset w30, -8
	.cfi_offset w29, -16
	stur	x0, [x29, #-8]
	stur	x1, [x29, #-16]
	ldur	x8, [x29, #-8]
	str	x8, [sp, #16]                   ; 8-byte Folded Spill
	ldur	x8, [x29, #-16]
	subs	x8, x8, #0
	cset	w8, eq
	tbnz	w8, #0, LBB30_6
	b	LBB30_1
LBB30_1:
	ldr	x0, [sp, #16]                   ; 8-byte Folded Reload
	ldur	x8, [x29, #-16]
	ldr	x1, [x8]
	bl	__ZNSt3__16__treeINS_12__value_typeIiiEENS_19__map_value_compareIiS2_NS_4lessIiEELb1EEENS_9allocatorIS2_EEE7destroyEPNS_11__tree_nodeIS2_PvEE
	ldr	x0, [sp, #16]                   ; 8-byte Folded Reload
	ldur	x8, [x29, #-16]
	ldr	x1, [x8, #8]
	bl	__ZNSt3__16__treeINS_12__value_typeIiiEENS_19__map_value_compareIiS2_NS_4lessIiEELb1EEENS_9allocatorIS2_EEE7destroyEPNS_11__tree_nodeIS2_PvEE
	ldr	x0, [sp, #16]                   ; 8-byte Folded Reload
	bl	__ZNSt3__16__treeINS_12__value_typeIiiEENS_19__map_value_compareIiS2_NS_4lessIiEELb1EEENS_9allocatorIS2_EEE12__node_allocB8ne180100Ev
	stur	x0, [x29, #-24]
	ldur	x8, [x29, #-24]
	str	x8, [sp]                        ; 8-byte Folded Spill
	ldur	x8, [x29, #-16]
	add	x0, x8, #28
Ltmp14:
	bl	__ZNSt3__122__tree_key_value_typesINS_12__value_typeIiiEEE9__get_ptrB8ne180100ERS2_
	str	x0, [sp, #8]                    ; 8-byte Folded Spill
Ltmp15:
	b	LBB30_2
LBB30_2:
Ltmp16:
	ldr	x1, [sp, #8]                    ; 8-byte Folded Reload
	ldr	x0, [sp]                        ; 8-byte Folded Reload
	bl	__ZNSt3__116allocator_traitsINS_9allocatorINS_11__tree_nodeINS_12__value_typeIiiEEPvEEEEE7destroyB8ne180100INS_4pairIKiiEEvvEEvRS7_PT_
Ltmp17:
	b	LBB30_3
LBB30_3:
	ldur	x0, [x29, #-24]
	ldur	x1, [x29, #-16]
	mov	x2, #1                          ; =0x1
	bl	__ZNSt3__116allocator_traitsINS_9allocatorINS_11__tree_nodeINS_12__value_typeIiiEEPvEEEEE10deallocateB8ne180100ERS7_PS6_m
	b	LBB30_6
LBB30_4:
Ltmp18:
	str	x0, [sp, #32]
	mov	x8, x1
	str	w8, [sp, #28]
	b	LBB30_5
LBB30_5:
	ldr	x0, [sp, #32]
	bl	___cxa_call_unexpected
LBB30_6:
	ldp	x29, x30, [sp, #64]             ; 16-byte Folded Reload
	add	sp, sp, #80
	ret
Lfunc_end1:
	.cfi_endproc
	.section	__TEXT,__gcc_except_tab
	.p2align	2, 0x0
GCC_except_table30:
Lexception1:
	.byte	255                             ; @LPStart Encoding = omit
	.byte	155                             ; @TType Encoding = indirect pcrel sdata4
	.uleb128 Lttbase1-Lttbaseref1
Lttbaseref1:
	.byte	1                               ; Call site Encoding = uleb128
	.uleb128 Lcst_end1-Lcst_begin1
Lcst_begin1:
	.uleb128 Ltmp14-Lfunc_begin1            ; >> Call Site 1 <<
	.uleb128 Ltmp17-Ltmp14                  ;   Call between Ltmp14 and Ltmp17
	.uleb128 Ltmp18-Lfunc_begin1            ;     jumps to Ltmp18
	.byte	1                               ;   On action: 1
	.uleb128 Ltmp17-Lfunc_begin1            ; >> Call Site 2 <<
	.uleb128 Lfunc_end1-Ltmp17              ;   Call between Ltmp17 and Lfunc_end1
	.byte	0                               ;     has no landing pad
	.byte	0                               ;   On action: cleanup
Lcst_end1:
	.byte	127                             ; >> Action Record 1 <<
                                        ;   Filter TypeInfo -1
	.byte	0                               ;   No further actions
	.p2align	2, 0x0
Lttbase1:
                                        ; >> Filter TypeInfos <<
	.byte	0
	.p2align	2, 0x0
                                        ; -- End function
	.section	__TEXT,__text,regular,pure_instructions
	.private_extern	__ZNKSt3__16__treeINS_12__value_typeIiiEENS_19__map_value_compareIiS2_NS_4lessIiEELb1EEENS_9allocatorIS2_EEE6__rootB8ne180100Ev ; -- Begin function _ZNKSt3__16__treeINS_12__value_typeIiiEENS_19__map_value_compareIiS2_NS_4lessIiEELb1EEENS_9allocatorIS2_EEE6__rootB8ne180100Ev
	.globl	__ZNKSt3__16__treeINS_12__value_typeIiiEENS_19__map_value_compareIiS2_NS_4lessIiEELb1EEENS_9allocatorIS2_EEE6__rootB8ne180100Ev
	.weak_definition	__ZNKSt3__16__treeINS_12__value_typeIiiEENS_19__map_value_compareIiS2_NS_4lessIiEELb1EEENS_9allocatorIS2_EEE6__rootB8ne180100Ev
	.p2align	2
__ZNKSt3__16__treeINS_12__value_typeIiiEENS_19__map_value_compareIiS2_NS_4lessIiEELb1EEENS_9allocatorIS2_EEE6__rootB8ne180100Ev: ; @_ZNKSt3__16__treeINS_12__value_typeIiiEENS_19__map_value_compareIiS2_NS_4lessIiEELb1EEENS_9allocatorIS2_EEE6__rootB8ne180100Ev
	.cfi_startproc
; %bb.0:
	sub	sp, sp, #32
	stp	x29, x30, [sp, #16]             ; 16-byte Folded Spill
	add	x29, sp, #16
	.cfi_def_cfa w29, 16
	.cfi_offset w30, -8
	.cfi_offset w29, -16
	str	x0, [sp, #8]
	ldr	x0, [sp, #8]
	bl	__ZNKSt3__16__treeINS_12__value_typeIiiEENS_19__map_value_compareIiS2_NS_4lessIiEELb1EEENS_9allocatorIS2_EEE10__end_nodeB8ne180100Ev
	ldr	x0, [x0]
	ldp	x29, x30, [sp, #16]             ; 16-byte Folded Reload
	add	sp, sp, #32
	ret
	.cfi_endproc
                                        ; -- End function
	.private_extern	__ZNSt3__16__treeINS_12__value_typeIiiEENS_19__map_value_compareIiS2_NS_4lessIiEELb1EEENS_9allocatorIS2_EEE12__node_allocB8ne180100Ev ; -- Begin function _ZNSt3__16__treeINS_12__value_typeIiiEENS_19__map_value_compareIiS2_NS_4lessIiEELb1EEENS_9allocatorIS2_EEE12__node_allocB8ne180100Ev
	.globl	__ZNSt3__16__treeINS_12__value_typeIiiEENS_19__map_value_compareIiS2_NS_4lessIiEELb1EEENS_9allocatorIS2_EEE12__node_allocB8ne180100Ev
	.weak_definition	__ZNSt3__16__treeINS_12__value_typeIiiEENS_19__map_value_compareIiS2_NS_4lessIiEELb1EEENS_9allocatorIS2_EEE12__node_allocB8ne180100Ev
	.p2align	2
__ZNSt3__16__treeINS_12__value_typeIiiEENS_19__map_value_compareIiS2_NS_4lessIiEELb1EEENS_9allocatorIS2_EEE12__node_allocB8ne180100Ev: ; @_ZNSt3__16__treeINS_12__value_typeIiiEENS_19__map_value_compareIiS2_NS_4lessIiEELb1EEENS_9allocatorIS2_EEE12__node_allocB8ne180100Ev
	.cfi_startproc
; %bb.0:
	sub	sp, sp, #32
	stp	x29, x30, [sp, #16]             ; 16-byte Folded Spill
	add	x29, sp, #16
	.cfi_def_cfa w29, 16
	.cfi_offset w30, -8
	.cfi_offset w29, -16
	str	x0, [sp, #8]
	ldr	x8, [sp, #8]
	add	x0, x8, #8
	bl	__ZNSt3__117__compressed_pairINS_15__tree_end_nodeIPNS_16__tree_node_baseIPvEEEENS_9allocatorINS_11__tree_nodeINS_12__value_typeIiiEES3_EEEEE6secondB8ne180100Ev
	ldp	x29, x30, [sp, #16]             ; 16-byte Folded Reload
	add	sp, sp, #32
	ret
	.cfi_endproc
                                        ; -- End function
	.globl	__ZNSt3__116allocator_traitsINS_9allocatorINS_11__tree_nodeINS_12__value_typeIiiEEPvEEEEE7destroyB8ne180100INS_4pairIKiiEEvvEEvRS7_PT_ ; -- Begin function _ZNSt3__116allocator_traitsINS_9allocatorINS_11__tree_nodeINS_12__value_typeIiiEEPvEEEEE7destroyB8ne180100INS_4pairIKiiEEvvEEvRS7_PT_
	.weak_definition	__ZNSt3__116allocator_traitsINS_9allocatorINS_11__tree_nodeINS_12__value_typeIiiEEPvEEEEE7destroyB8ne180100INS_4pairIKiiEEvvEEvRS7_PT_
	.p2align	2
__ZNSt3__116allocator_traitsINS_9allocatorINS_11__tree_nodeINS_12__value_typeIiiEEPvEEEEE7destroyB8ne180100INS_4pairIKiiEEvvEEvRS7_PT_: ; @_ZNSt3__116allocator_traitsINS_9allocatorINS_11__tree_nodeINS_12__value_typeIiiEEPvEEEEE7destroyB8ne180100INS_4pairIKiiEEvvEEvRS7_PT_
	.cfi_startproc
; %bb.0:
	sub	sp, sp, #32
	stp	x29, x30, [sp, #16]             ; 16-byte Folded Spill
	add	x29, sp, #16
	.cfi_def_cfa w29, 16
	.cfi_offset w30, -8
	.cfi_offset w29, -16
	str	x0, [sp, #8]
	str	x1, [sp]
	ldr	x0, [sp]
	bl	__ZNSt3__112__destroy_atB8ne180100INS_4pairIKiiEELi0EEEvPT_
	ldp	x29, x30, [sp, #16]             ; 16-byte Folded Reload
	add	sp, sp, #32
	ret
	.cfi_endproc
                                        ; -- End function
	.private_extern	__ZNSt3__122__tree_key_value_typesINS_12__value_typeIiiEEE9__get_ptrB8ne180100ERS2_ ; -- Begin function _ZNSt3__122__tree_key_value_typesINS_12__value_typeIiiEEE9__get_ptrB8ne180100ERS2_
	.globl	__ZNSt3__122__tree_key_value_typesINS_12__value_typeIiiEEE9__get_ptrB8ne180100ERS2_
	.weak_definition	__ZNSt3__122__tree_key_value_typesINS_12__value_typeIiiEEE9__get_ptrB8ne180100ERS2_
	.p2align	2
__ZNSt3__122__tree_key_value_typesINS_12__value_typeIiiEEE9__get_ptrB8ne180100ERS2_: ; @_ZNSt3__122__tree_key_value_typesINS_12__value_typeIiiEEE9__get_ptrB8ne180100ERS2_
	.cfi_startproc
; %bb.0:
	sub	sp, sp, #32
	stp	x29, x30, [sp, #16]             ; 16-byte Folded Spill
	add	x29, sp, #16
	.cfi_def_cfa w29, 16
	.cfi_offset w30, -8
	.cfi_offset w29, -16
	str	x0, [sp, #8]
	ldr	x0, [sp, #8]
	bl	__ZNSt3__112__value_typeIiiE11__get_valueB8ne180100Ev
	ldp	x29, x30, [sp, #16]             ; 16-byte Folded Reload
	add	sp, sp, #32
	ret
	.cfi_endproc
                                        ; -- End function
	.private_extern	__ZNSt3__116allocator_traitsINS_9allocatorINS_11__tree_nodeINS_12__value_typeIiiEEPvEEEEE10deallocateB8ne180100ERS7_PS6_m ; -- Begin function _ZNSt3__116allocator_traitsINS_9allocatorINS_11__tree_nodeINS_12__value_typeIiiEEPvEEEEE10deallocateB8ne180100ERS7_PS6_m
	.globl	__ZNSt3__116allocator_traitsINS_9allocatorINS_11__tree_nodeINS_12__value_typeIiiEEPvEEEEE10deallocateB8ne180100ERS7_PS6_m
	.weak_definition	__ZNSt3__116allocator_traitsINS_9allocatorINS_11__tree_nodeINS_12__value_typeIiiEEPvEEEEE10deallocateB8ne180100ERS7_PS6_m
	.p2align	2
__ZNSt3__116allocator_traitsINS_9allocatorINS_11__tree_nodeINS_12__value_typeIiiEEPvEEEEE10deallocateB8ne180100ERS7_PS6_m: ; @_ZNSt3__116allocator_traitsINS_9allocatorINS_11__tree_nodeINS_12__value_typeIiiEEPvEEEEE10deallocateB8ne180100ERS7_PS6_m
	.cfi_startproc
; %bb.0:
	sub	sp, sp, #48
	stp	x29, x30, [sp, #32]             ; 16-byte Folded Spill
	add	x29, sp, #32
	.cfi_def_cfa w29, 16
	.cfi_offset w30, -8
	.cfi_offset w29, -16
	stur	x0, [x29, #-8]
	str	x1, [sp, #16]
	str	x2, [sp, #8]
	ldur	x0, [x29, #-8]
	ldr	x1, [sp, #16]
	ldr	x2, [sp, #8]
	bl	__ZNSt3__19allocatorINS_11__tree_nodeINS_12__value_typeIiiEEPvEEE10deallocateB8ne180100EPS5_m
	ldp	x29, x30, [sp, #32]             ; 16-byte Folded Reload
	add	sp, sp, #48
	ret
	.cfi_endproc
                                        ; -- End function
	.private_extern	__ZNSt3__117__compressed_pairINS_15__tree_end_nodeIPNS_16__tree_node_baseIPvEEEENS_9allocatorINS_11__tree_nodeINS_12__value_typeIiiEES3_EEEEE6secondB8ne180100Ev ; -- Begin function _ZNSt3__117__compressed_pairINS_15__tree_end_nodeIPNS_16__tree_node_baseIPvEEEENS_9allocatorINS_11__tree_nodeINS_12__value_typeIiiEES3_EEEEE6secondB8ne180100Ev
	.globl	__ZNSt3__117__compressed_pairINS_15__tree_end_nodeIPNS_16__tree_node_baseIPvEEEENS_9allocatorINS_11__tree_nodeINS_12__value_typeIiiEES3_EEEEE6secondB8ne180100Ev
	.weak_definition	__ZNSt3__117__compressed_pairINS_15__tree_end_nodeIPNS_16__tree_node_baseIPvEEEENS_9allocatorINS_11__tree_nodeINS_12__value_typeIiiEES3_EEEEE6secondB8ne180100Ev
	.p2align	2
__ZNSt3__117__compressed_pairINS_15__tree_end_nodeIPNS_16__tree_node_baseIPvEEEENS_9allocatorINS_11__tree_nodeINS_12__value_typeIiiEES3_EEEEE6secondB8ne180100Ev: ; @_ZNSt3__117__compressed_pairINS_15__tree_end_nodeIPNS_16__tree_node_baseIPvEEEENS_9allocatorINS_11__tree_nodeINS_12__value_typeIiiEES3_EEEEE6secondB8ne180100Ev
	.cfi_startproc
; %bb.0:
	sub	sp, sp, #32
	stp	x29, x30, [sp, #16]             ; 16-byte Folded Spill
	add	x29, sp, #16
	.cfi_def_cfa w29, 16
	.cfi_offset w30, -8
	.cfi_offset w29, -16
	str	x0, [sp, #8]
	ldr	x0, [sp, #8]
	bl	__ZNSt3__122__compressed_pair_elemINS_9allocatorINS_11__tree_nodeINS_12__value_typeIiiEEPvEEEELi1ELb1EE5__getB8ne180100Ev
	ldp	x29, x30, [sp, #16]             ; 16-byte Folded Reload
	add	sp, sp, #32
	ret
	.cfi_endproc
                                        ; -- End function
	.private_extern	__ZNSt3__122__compressed_pair_elemINS_9allocatorINS_11__tree_nodeINS_12__value_typeIiiEEPvEEEELi1ELb1EE5__getB8ne180100Ev ; -- Begin function _ZNSt3__122__compressed_pair_elemINS_9allocatorINS_11__tree_nodeINS_12__value_typeIiiEEPvEEEELi1ELb1EE5__getB8ne180100Ev
	.globl	__ZNSt3__122__compressed_pair_elemINS_9allocatorINS_11__tree_nodeINS_12__value_typeIiiEEPvEEEELi1ELb1EE5__getB8ne180100Ev
	.weak_definition	__ZNSt3__122__compressed_pair_elemINS_9allocatorINS_11__tree_nodeINS_12__value_typeIiiEEPvEEEELi1ELb1EE5__getB8ne180100Ev
	.p2align	2
__ZNSt3__122__compressed_pair_elemINS_9allocatorINS_11__tree_nodeINS_12__value_typeIiiEEPvEEEELi1ELb1EE5__getB8ne180100Ev: ; @_ZNSt3__122__compressed_pair_elemINS_9allocatorINS_11__tree_nodeINS_12__value_typeIiiEEPvEEEELi1ELb1EE5__getB8ne180100Ev
	.cfi_startproc
; %bb.0:
	sub	sp, sp, #16
	.cfi_def_cfa_offset 16
	str	x0, [sp, #8]
	ldr	x0, [sp, #8]
	add	sp, sp, #16
	ret
	.cfi_endproc
                                        ; -- End function
	.private_extern	__ZNSt3__112__destroy_atB8ne180100INS_4pairIKiiEELi0EEEvPT_ ; -- Begin function _ZNSt3__112__destroy_atB8ne180100INS_4pairIKiiEELi0EEEvPT_
	.globl	__ZNSt3__112__destroy_atB8ne180100INS_4pairIKiiEELi0EEEvPT_
	.weak_definition	__ZNSt3__112__destroy_atB8ne180100INS_4pairIKiiEELi0EEEvPT_
	.p2align	2
__ZNSt3__112__destroy_atB8ne180100INS_4pairIKiiEELi0EEEvPT_: ; @_ZNSt3__112__destroy_atB8ne180100INS_4pairIKiiEELi0EEEvPT_
	.cfi_startproc
; %bb.0:
	sub	sp, sp, #16
	.cfi_def_cfa_offset 16
	str	x0, [sp, #8]
	add	sp, sp, #16
	ret
	.cfi_endproc
                                        ; -- End function
	.private_extern	__ZNSt3__112__value_typeIiiE11__get_valueB8ne180100Ev ; -- Begin function _ZNSt3__112__value_typeIiiE11__get_valueB8ne180100Ev
	.globl	__ZNSt3__112__value_typeIiiE11__get_valueB8ne180100Ev
	.weak_definition	__ZNSt3__112__value_typeIiiE11__get_valueB8ne180100Ev
	.p2align	2
__ZNSt3__112__value_typeIiiE11__get_valueB8ne180100Ev: ; @_ZNSt3__112__value_typeIiiE11__get_valueB8ne180100Ev
	.cfi_startproc
; %bb.0:
	sub	sp, sp, #16
	.cfi_def_cfa_offset 16
	str	x0, [sp, #8]
	ldr	x0, [sp, #8]
	add	sp, sp, #16
	ret
	.cfi_endproc
                                        ; -- End function
	.private_extern	__ZNSt3__19allocatorINS_11__tree_nodeINS_12__value_typeIiiEEPvEEE10deallocateB8ne180100EPS5_m ; -- Begin function _ZNSt3__19allocatorINS_11__tree_nodeINS_12__value_typeIiiEEPvEEE10deallocateB8ne180100EPS5_m
	.globl	__ZNSt3__19allocatorINS_11__tree_nodeINS_12__value_typeIiiEEPvEEE10deallocateB8ne180100EPS5_m
	.weak_definition	__ZNSt3__19allocatorINS_11__tree_nodeINS_12__value_typeIiiEEPvEEE10deallocateB8ne180100EPS5_m
	.p2align	2
__ZNSt3__19allocatorINS_11__tree_nodeINS_12__value_typeIiiEEPvEEE10deallocateB8ne180100EPS5_m: ; @_ZNSt3__19allocatorINS_11__tree_nodeINS_12__value_typeIiiEEPvEEE10deallocateB8ne180100EPS5_m
Lfunc_begin2:
	.cfi_startproc
	.cfi_personality 155, ___gxx_personality_v0
	.cfi_lsda 16, Lexception2
; %bb.0:
	sub	sp, sp, #64
	stp	x29, x30, [sp, #48]             ; 16-byte Folded Spill
	add	x29, sp, #48
	.cfi_def_cfa w29, 16
	.cfi_offset w30, -8
	.cfi_offset w29, -16
	stur	x0, [x29, #-8]
	stur	x1, [x29, #-16]
	str	x2, [sp, #24]
	bl	__ZNSt3__130__libcpp_is_constant_evaluatedB8ne180100Ev
	tbz	w0, #0, LBB40_2
	b	LBB40_1
LBB40_1:
	ldur	x0, [x29, #-16]
	bl	__ZdlPv
	b	LBB40_6
LBB40_2:
	ldur	x0, [x29, #-16]
	ldr	x8, [sp, #24]
	mov	x9, #40                         ; =0x28
	mul	x1, x8, x9
Ltmp22:
	mov	x2, #8                          ; =0x8
	bl	__ZNSt3__119__libcpp_deallocateB8ne180100EPvmm
Ltmp23:
	b	LBB40_3
LBB40_3:
	b	LBB40_6
LBB40_4:
Ltmp24:
	str	x0, [sp, #16]
	mov	x8, x1
	str	w8, [sp, #12]
	b	LBB40_5
LBB40_5:
	ldr	x0, [sp, #16]
	bl	___cxa_call_unexpected
LBB40_6:
	ldp	x29, x30, [sp, #48]             ; 16-byte Folded Reload
	add	sp, sp, #64
	ret
Lfunc_end2:
	.cfi_endproc
	.section	__TEXT,__gcc_except_tab
	.p2align	2, 0x0
GCC_except_table40:
Lexception2:
	.byte	255                             ; @LPStart Encoding = omit
	.byte	155                             ; @TType Encoding = indirect pcrel sdata4
	.uleb128 Lttbase2-Lttbaseref2
Lttbaseref2:
	.byte	1                               ; Call site Encoding = uleb128
	.uleb128 Lcst_end2-Lcst_begin2
Lcst_begin2:
	.uleb128 Ltmp22-Lfunc_begin2            ; >> Call Site 1 <<
	.uleb128 Ltmp23-Ltmp22                  ;   Call between Ltmp22 and Ltmp23
	.uleb128 Ltmp24-Lfunc_begin2            ;     jumps to Ltmp24
	.byte	1                               ;   On action: 1
	.uleb128 Ltmp23-Lfunc_begin2            ; >> Call Site 2 <<
	.uleb128 Lfunc_end2-Ltmp23              ;   Call between Ltmp23 and Lfunc_end2
	.byte	0                               ;     has no landing pad
	.byte	0                               ;   On action: cleanup
Lcst_end2:
	.byte	127                             ; >> Action Record 1 <<
                                        ;   Filter TypeInfo -1
	.byte	0                               ;   No further actions
	.p2align	2, 0x0
Lttbase2:
                                        ; >> Filter TypeInfos <<
	.byte	0
	.p2align	2, 0x0
                                        ; -- End function
	.section	__TEXT,__text,regular,pure_instructions
	.private_extern	__ZNSt3__130__libcpp_is_constant_evaluatedB8ne180100Ev ; -- Begin function _ZNSt3__130__libcpp_is_constant_evaluatedB8ne180100Ev
	.globl	__ZNSt3__130__libcpp_is_constant_evaluatedB8ne180100Ev
	.weak_definition	__ZNSt3__130__libcpp_is_constant_evaluatedB8ne180100Ev
	.p2align	2
__ZNSt3__130__libcpp_is_constant_evaluatedB8ne180100Ev: ; @_ZNSt3__130__libcpp_is_constant_evaluatedB8ne180100Ev
	.cfi_startproc
; %bb.0:
	mov	w8, #0                          ; =0x0
	and	w0, w8, #0x1
	ret
	.cfi_endproc
                                        ; -- End function
	.private_extern	__ZNSt3__119__libcpp_deallocateB8ne180100EPvmm ; -- Begin function _ZNSt3__119__libcpp_deallocateB8ne180100EPvmm
	.globl	__ZNSt3__119__libcpp_deallocateB8ne180100EPvmm
	.weak_definition	__ZNSt3__119__libcpp_deallocateB8ne180100EPvmm
	.p2align	2
__ZNSt3__119__libcpp_deallocateB8ne180100EPvmm: ; @_ZNSt3__119__libcpp_deallocateB8ne180100EPvmm
	.cfi_startproc
; %bb.0:
	sub	sp, sp, #48
	stp	x29, x30, [sp, #32]             ; 16-byte Folded Spill
	add	x29, sp, #32
	.cfi_def_cfa w29, 16
	.cfi_offset w30, -8
	.cfi_offset w29, -16
	stur	x0, [x29, #-8]
	str	x1, [sp, #16]
	str	x2, [sp, #8]
	ldur	x0, [x29, #-8]
	ldr	x1, [sp, #16]
	bl	__ZNSt3__127__do_deallocate_handle_sizeB8ne180100IJEEEvPvmDpT_
	ldp	x29, x30, [sp, #32]             ; 16-byte Folded Reload
	add	sp, sp, #48
	ret
	.cfi_endproc
                                        ; -- End function
	.private_extern	__ZNSt3__127__do_deallocate_handle_sizeB8ne180100IJEEEvPvmDpT_ ; -- Begin function _ZNSt3__127__do_deallocate_handle_sizeB8ne180100IJEEEvPvmDpT_
	.globl	__ZNSt3__127__do_deallocate_handle_sizeB8ne180100IJEEEvPvmDpT_
	.weak_definition	__ZNSt3__127__do_deallocate_handle_sizeB8ne180100IJEEEvPvmDpT_
	.p2align	2
__ZNSt3__127__do_deallocate_handle_sizeB8ne180100IJEEEvPvmDpT_: ; @_ZNSt3__127__do_deallocate_handle_sizeB8ne180100IJEEEvPvmDpT_
	.cfi_startproc
; %bb.0:
	sub	sp, sp, #32
	stp	x29, x30, [sp, #16]             ; 16-byte Folded Spill
	add	x29, sp, #16
	.cfi_def_cfa w29, 16
	.cfi_offset w30, -8
	.cfi_offset w29, -16
	str	x0, [sp, #8]
	str	x1, [sp]
	ldr	x0, [sp, #8]
	bl	__ZNSt3__124__libcpp_operator_deleteB8ne180100IJPvEEEvDpT_
	ldp	x29, x30, [sp, #16]             ; 16-byte Folded Reload
	add	sp, sp, #32
	ret
	.cfi_endproc
                                        ; -- End function
	.private_extern	__ZNSt3__124__libcpp_operator_deleteB8ne180100IJPvEEEvDpT_ ; -- Begin function _ZNSt3__124__libcpp_operator_deleteB8ne180100IJPvEEEvDpT_
	.globl	__ZNSt3__124__libcpp_operator_deleteB8ne180100IJPvEEEvDpT_
	.weak_definition	__ZNSt3__124__libcpp_operator_deleteB8ne180100IJPvEEEvDpT_
	.p2align	2
__ZNSt3__124__libcpp_operator_deleteB8ne180100IJPvEEEvDpT_: ; @_ZNSt3__124__libcpp_operator_deleteB8ne180100IJPvEEEvDpT_
	.cfi_startproc
; %bb.0:
	sub	sp, sp, #32
	stp	x29, x30, [sp, #16]             ; 16-byte Folded Spill
	add	x29, sp, #16
	.cfi_def_cfa w29, 16
	.cfi_offset w30, -8
	.cfi_offset w29, -16
	str	x0, [sp, #8]
	ldr	x0, [sp, #8]
	bl	__ZdlPv
	ldp	x29, x30, [sp, #16]             ; 16-byte Folded Reload
	add	sp, sp, #32
	ret
	.cfi_endproc
                                        ; -- End function
	.private_extern	__ZNKSt3__16__treeINS_12__value_typeIiiEENS_19__map_value_compareIiS2_NS_4lessIiEELb1EEENS_9allocatorIS2_EEE10__end_nodeB8ne180100Ev ; -- Begin function _ZNKSt3__16__treeINS_12__value_typeIiiEENS_19__map_value_compareIiS2_NS_4lessIiEELb1EEENS_9allocatorIS2_EEE10__end_nodeB8ne180100Ev
	.globl	__ZNKSt3__16__treeINS_12__value_typeIiiEENS_19__map_value_compareIiS2_NS_4lessIiEELb1EEENS_9allocatorIS2_EEE10__end_nodeB8ne180100Ev
	.weak_definition	__ZNKSt3__16__treeINS_12__value_typeIiiEENS_19__map_value_compareIiS2_NS_4lessIiEELb1EEENS_9allocatorIS2_EEE10__end_nodeB8ne180100Ev
	.p2align	2
__ZNKSt3__16__treeINS_12__value_typeIiiEENS_19__map_value_compareIiS2_NS_4lessIiEELb1EEENS_9allocatorIS2_EEE10__end_nodeB8ne180100Ev: ; @_ZNKSt3__16__treeINS_12__value_typeIiiEENS_19__map_value_compareIiS2_NS_4lessIiEELb1EEENS_9allocatorIS2_EEE10__end_nodeB8ne180100Ev
	.cfi_startproc
; %bb.0:
	sub	sp, sp, #32
	stp	x29, x30, [sp, #16]             ; 16-byte Folded Spill
	add	x29, sp, #16
	.cfi_def_cfa w29, 16
	.cfi_offset w30, -8
	.cfi_offset w29, -16
	str	x0, [sp, #8]
	ldr	x8, [sp, #8]
	add	x0, x8, #8
	bl	__ZNKSt3__117__compressed_pairINS_15__tree_end_nodeIPNS_16__tree_node_baseIPvEEEENS_9allocatorINS_11__tree_nodeINS_12__value_typeIiiEES3_EEEEE5firstB8ne180100Ev
	bl	__ZNSt3__114pointer_traitsIPNS_15__tree_end_nodeIPNS_16__tree_node_baseIPvEEEEE10pointer_toB8ne180100ERS6_
	ldp	x29, x30, [sp, #16]             ; 16-byte Folded Reload
	add	sp, sp, #32
	ret
	.cfi_endproc
                                        ; -- End function
	.private_extern	__ZNKSt3__117__compressed_pairINS_15__tree_end_nodeIPNS_16__tree_node_baseIPvEEEENS_9allocatorINS_11__tree_nodeINS_12__value_typeIiiEES3_EEEEE5firstB8ne180100Ev ; -- Begin function _ZNKSt3__117__compressed_pairINS_15__tree_end_nodeIPNS_16__tree_node_baseIPvEEEENS_9allocatorINS_11__tree_nodeINS_12__value_typeIiiEES3_EEEEE5firstB8ne180100Ev
	.globl	__ZNKSt3__117__compressed_pairINS_15__tree_end_nodeIPNS_16__tree_node_baseIPvEEEENS_9allocatorINS_11__tree_nodeINS_12__value_typeIiiEES3_EEEEE5firstB8ne180100Ev
	.weak_definition	__ZNKSt3__117__compressed_pairINS_15__tree_end_nodeIPNS_16__tree_node_baseIPvEEEENS_9allocatorINS_11__tree_nodeINS_12__value_typeIiiEES3_EEEEE5firstB8ne180100Ev
	.p2align	2
__ZNKSt3__117__compressed_pairINS_15__tree_end_nodeIPNS_16__tree_node_baseIPvEEEENS_9allocatorINS_11__tree_nodeINS_12__value_typeIiiEES3_EEEEE5firstB8ne180100Ev: ; @_ZNKSt3__117__compressed_pairINS_15__tree_end_nodeIPNS_16__tree_node_baseIPvEEEENS_9allocatorINS_11__tree_nodeINS_12__value_typeIiiEES3_EEEEE5firstB8ne180100Ev
	.cfi_startproc
; %bb.0:
	sub	sp, sp, #32
	stp	x29, x30, [sp, #16]             ; 16-byte Folded Spill
	add	x29, sp, #16
	.cfi_def_cfa w29, 16
	.cfi_offset w30, -8
	.cfi_offset w29, -16
	str	x0, [sp, #8]
	ldr	x0, [sp, #8]
	bl	__ZNKSt3__122__compressed_pair_elemINS_15__tree_end_nodeIPNS_16__tree_node_baseIPvEEEELi0ELb0EE5__getB8ne180100Ev
	ldp	x29, x30, [sp, #16]             ; 16-byte Folded Reload
	add	sp, sp, #32
	ret
	.cfi_endproc
                                        ; -- End function
	.private_extern	__ZNKSt3__122__compressed_pair_elemINS_15__tree_end_nodeIPNS_16__tree_node_baseIPvEEEELi0ELb0EE5__getB8ne180100Ev ; -- Begin function _ZNKSt3__122__compressed_pair_elemINS_15__tree_end_nodeIPNS_16__tree_node_baseIPvEEEELi0ELb0EE5__getB8ne180100Ev
	.globl	__ZNKSt3__122__compressed_pair_elemINS_15__tree_end_nodeIPNS_16__tree_node_baseIPvEEEELi0ELb0EE5__getB8ne180100Ev
	.weak_definition	__ZNKSt3__122__compressed_pair_elemINS_15__tree_end_nodeIPNS_16__tree_node_baseIPvEEEELi0ELb0EE5__getB8ne180100Ev
	.p2align	2
__ZNKSt3__122__compressed_pair_elemINS_15__tree_end_nodeIPNS_16__tree_node_baseIPvEEEELi0ELb0EE5__getB8ne180100Ev: ; @_ZNKSt3__122__compressed_pair_elemINS_15__tree_end_nodeIPNS_16__tree_node_baseIPvEEEELi0ELb0EE5__getB8ne180100Ev
	.cfi_startproc
; %bb.0:
	sub	sp, sp, #16
	.cfi_def_cfa_offset 16
	str	x0, [sp, #8]
	ldr	x0, [sp, #8]
	add	sp, sp, #16
	ret
	.cfi_endproc
                                        ; -- End function
	.globl	__ZNSt3__16__treeINS_12__value_typeIiiEENS_19__map_value_compareIiS2_NS_4lessIiEELb1EEENS_9allocatorIS2_EEE12__find_equalIiEERPNS_16__tree_node_baseIPvEERPNS_15__tree_end_nodeISE_EERKT_ ; -- Begin function _ZNSt3__16__treeINS_12__value_typeIiiEENS_19__map_value_compareIiS2_NS_4lessIiEELb1EEENS_9allocatorIS2_EEE12__find_equalIiEERPNS_16__tree_node_baseIPvEERPNS_15__tree_end_nodeISE_EERKT_
	.weak_definition	__ZNSt3__16__treeINS_12__value_typeIiiEENS_19__map_value_compareIiS2_NS_4lessIiEELb1EEENS_9allocatorIS2_EEE12__find_equalIiEERPNS_16__tree_node_baseIPvEERPNS_15__tree_end_nodeISE_EERKT_
	.p2align	2
__ZNSt3__16__treeINS_12__value_typeIiiEENS_19__map_value_compareIiS2_NS_4lessIiEELb1EEENS_9allocatorIS2_EEE12__find_equalIiEERPNS_16__tree_node_baseIPvEERPNS_15__tree_end_nodeISE_EERKT_: ; @_ZNSt3__16__treeINS_12__value_typeIiiEENS_19__map_value_compareIiS2_NS_4lessIiEELb1EEENS_9allocatorIS2_EEE12__find_equalIiEERPNS_16__tree_node_baseIPvEERPNS_15__tree_end_nodeISE_EERKT_
	.cfi_startproc
; %bb.0:
	sub	sp, sp, #80
	stp	x29, x30, [sp, #64]             ; 16-byte Folded Spill
	add	x29, sp, #64
	.cfi_def_cfa w29, 16
	.cfi_offset w30, -8
	.cfi_offset w29, -16
	stur	x0, [x29, #-16]
	stur	x1, [x29, #-24]
	str	x2, [sp, #32]
	ldur	x0, [x29, #-16]
	str	x0, [sp, #8]                    ; 8-byte Folded Spill
	bl	__ZNKSt3__16__treeINS_12__value_typeIiiEENS_19__map_value_compareIiS2_NS_4lessIiEELb1EEENS_9allocatorIS2_EEE6__rootB8ne180100Ev
	mov	x8, x0
	ldr	x0, [sp, #8]                    ; 8-byte Folded Reload
	str	x8, [sp, #24]
	bl	__ZNKSt3__16__treeINS_12__value_typeIiiEENS_19__map_value_compareIiS2_NS_4lessIiEELb1EEENS_9allocatorIS2_EEE10__root_ptrB8ne180100Ev
	str	x0, [sp, #16]
	ldr	x8, [sp, #24]
	subs	x8, x8, #0
	cset	w8, eq
	tbnz	w8, #0, LBB48_15
	b	LBB48_1
LBB48_1:
	b	LBB48_2
LBB48_2:                                ; =>This Inner Loop Header: Depth=1
	ldr	x0, [sp, #8]                    ; 8-byte Folded Reload
	bl	__ZNSt3__16__treeINS_12__value_typeIiiEENS_19__map_value_compareIiS2_NS_4lessIiEELb1EEENS_9allocatorIS2_EEE10value_compB8ne180100Ev
	ldr	x1, [sp, #32]
	ldr	x8, [sp, #24]
	add	x2, x8, #28
	bl	__ZNKSt3__119__map_value_compareIiNS_12__value_typeIiiEENS_4lessIiEELb1EEclB8ne180100ERKiRKS2_
	tbz	w0, #0, LBB48_7
	b	LBB48_3
LBB48_3:                                ;   in Loop: Header=BB48_2 Depth=1
	ldr	x8, [sp, #24]
	ldr	x8, [x8]
	subs	x8, x8, #0
	cset	w8, eq
	tbnz	w8, #0, LBB48_5
	b	LBB48_4
LBB48_4:                                ;   in Loop: Header=BB48_2 Depth=1
	ldr	x8, [sp, #24]
	str	x8, [sp, #16]
	ldr	x8, [sp, #24]
	ldr	x8, [x8]
	str	x8, [sp, #24]
	b	LBB48_6
LBB48_5:
	ldr	x8, [sp, #24]
	ldur	x9, [x29, #-24]
	str	x8, [x9]
	ldur	x8, [x29, #-24]
	ldr	x8, [x8]
	stur	x8, [x29, #-8]
	b	LBB48_16
LBB48_6:                                ;   in Loop: Header=BB48_2 Depth=1
	b	LBB48_14
LBB48_7:                                ;   in Loop: Header=BB48_2 Depth=1
	ldr	x0, [sp, #8]                    ; 8-byte Folded Reload
	bl	__ZNSt3__16__treeINS_12__value_typeIiiEENS_19__map_value_compareIiS2_NS_4lessIiEELb1EEENS_9allocatorIS2_EEE10value_compB8ne180100Ev
	ldr	x8, [sp, #24]
	add	x1, x8, #28
	ldr	x2, [sp, #32]
	bl	__ZNKSt3__119__map_value_compareIiNS_12__value_typeIiiEENS_4lessIiEELb1EEclB8ne180100ERKS2_RKi
	tbz	w0, #0, LBB48_12
	b	LBB48_8
LBB48_8:                                ;   in Loop: Header=BB48_2 Depth=1
	ldr	x8, [sp, #24]
	ldr	x8, [x8, #8]
	subs	x8, x8, #0
	cset	w8, eq
	tbnz	w8, #0, LBB48_10
	b	LBB48_9
LBB48_9:                                ;   in Loop: Header=BB48_2 Depth=1
	ldr	x8, [sp, #24]
	add	x8, x8, #8
	str	x8, [sp, #16]
	ldr	x8, [sp, #24]
	ldr	x8, [x8, #8]
	str	x8, [sp, #24]
	b	LBB48_11
LBB48_10:
	ldr	x8, [sp, #24]
	ldur	x9, [x29, #-24]
	str	x8, [x9]
	ldr	x8, [sp, #24]
	add	x8, x8, #8
	stur	x8, [x29, #-8]
	b	LBB48_16
LBB48_11:                               ;   in Loop: Header=BB48_2 Depth=1
	b	LBB48_13
LBB48_12:
	ldr	x8, [sp, #24]
	ldur	x9, [x29, #-24]
	str	x8, [x9]
	ldr	x8, [sp, #16]
	stur	x8, [x29, #-8]
	b	LBB48_16
LBB48_13:                               ;   in Loop: Header=BB48_2 Depth=1
	b	LBB48_14
LBB48_14:                               ;   in Loop: Header=BB48_2 Depth=1
	b	LBB48_2
LBB48_15:
	ldr	x0, [sp, #8]                    ; 8-byte Folded Reload
	bl	__ZNSt3__16__treeINS_12__value_typeIiiEENS_19__map_value_compareIiS2_NS_4lessIiEELb1EEENS_9allocatorIS2_EEE10__end_nodeB8ne180100Ev
	ldur	x8, [x29, #-24]
	str	x0, [x8]
	ldur	x8, [x29, #-24]
	ldr	x8, [x8]
	stur	x8, [x29, #-8]
	b	LBB48_16
LBB48_16:
	ldur	x0, [x29, #-8]
	ldp	x29, x30, [sp, #64]             ; 16-byte Folded Reload
	add	sp, sp, #80
	ret
	.cfi_endproc
                                        ; -- End function
	.private_extern	__ZNSt3__13mapIiiNS_4lessIiEENS_9allocatorINS_4pairIKiiEEEEE25__construct_node_with_keyERS5_ ; -- Begin function _ZNSt3__13mapIiiNS_4lessIiEENS_9allocatorINS_4pairIKiiEEEEE25__construct_node_with_keyERS5_
	.globl	__ZNSt3__13mapIiiNS_4lessIiEENS_9allocatorINS_4pairIKiiEEEEE25__construct_node_with_keyERS5_
	.weak_definition	__ZNSt3__13mapIiiNS_4lessIiEENS_9allocatorINS_4pairIKiiEEEEE25__construct_node_with_keyERS5_
	.p2align	2
__ZNSt3__13mapIiiNS_4lessIiEENS_9allocatorINS_4pairIKiiEEEEE25__construct_node_with_keyERS5_: ; @_ZNSt3__13mapIiiNS_4lessIiEENS_9allocatorINS_4pairIKiiEEEEE25__construct_node_with_keyERS5_
Lfunc_begin3:
	.cfi_startproc
	.cfi_personality 155, ___gxx_personality_v0
	.cfi_lsda 16, Lexception3
; %bb.0:
	sub	sp, sp, #128
	stp	x29, x30, [sp, #112]            ; 16-byte Folded Spill
	add	x29, sp, #112
	.cfi_def_cfa w29, 16
	.cfi_offset w30, -8
	.cfi_offset w29, -16
	str	x8, [sp, #24]                   ; 8-byte Folded Spill
	stur	x8, [x29, #-8]
	stur	x0, [x29, #-16]
	stur	x1, [x29, #-24]
	ldur	x0, [x29, #-16]
	bl	__ZNSt3__16__treeINS_12__value_typeIiiEENS_19__map_value_compareIiS2_NS_4lessIiEELb1EEENS_9allocatorIS2_EEE12__node_allocB8ne180100Ev
	stur	x0, [x29, #-32]
	mov	w8, #0                          ; =0x0
	and	w8, w8, #0x1
	and	w8, w8, #0x1
	sturb	w8, [x29, #-33]
	ldur	x0, [x29, #-32]
	mov	x1, #1                          ; =0x1
	bl	__ZNSt3__116allocator_traitsINS_9allocatorINS_11__tree_nodeINS_12__value_typeIiiEEPvEEEEE8allocateB8ne180100ERS7_m
	str	x0, [sp, #8]                    ; 8-byte Folded Spill
	ldur	x1, [x29, #-32]
	add	x0, sp, #56
	str	x0, [sp, #16]                   ; 8-byte Folded Spill
	bl	__ZNSt3__121__map_node_destructorINS_9allocatorINS_11__tree_nodeINS_12__value_typeIiiEEPvEEEEEC1B8ne180100ERS7_
	ldr	x0, [sp, #24]                   ; 8-byte Folded Reload
	ldr	x1, [sp, #8]                    ; 8-byte Folded Reload
	ldr	x2, [sp, #16]                   ; 8-byte Folded Reload
	bl	__ZNSt3__110unique_ptrINS_11__tree_nodeINS_12__value_typeIiiEEPvEENS_21__map_node_destructorINS_9allocatorIS5_EEEEEC1B8ne180100ILb1EvEEPS5_NS_16__dependent_typeINS_27__unique_ptr_deleter_sfinaeIS9_EEXT_EE20__good_rval_ref_typeE
	ldr	x0, [sp, #24]                   ; 8-byte Folded Reload
	ldur	x8, [x29, #-32]
	str	x8, [sp, #32]                   ; 8-byte Folded Spill
	bl	__ZNKSt3__110unique_ptrINS_11__tree_nodeINS_12__value_typeIiiEEPvEENS_21__map_node_destructorINS_9allocatorIS5_EEEEEptB8ne180100Ev
	add	x0, x0, #28
	bl	__ZNSt3__112__value_typeIiiE11__get_valueB8ne180100Ev
	mov	x1, x0
	ldr	x0, [sp, #32]                   ; 8-byte Folded Reload
	ldur	x2, [x29, #-24]
Ltmp26:
	bl	__ZNSt3__116allocator_traitsINS_9allocatorINS_11__tree_nodeINS_12__value_typeIiiEEPvEEEEE9constructB8ne180100IKiJRSA_EvEEvRS7_PT_DpOT0_
Ltmp27:
	b	LBB49_1
LBB49_1:
	ldr	x0, [sp, #24]                   ; 8-byte Folded Reload
	bl	__ZNSt3__110unique_ptrINS_11__tree_nodeINS_12__value_typeIiiEEPvEENS_21__map_node_destructorINS_9allocatorIS5_EEEEE11get_deleterB8ne180100Ev
	mov	x9, x0
	ldr	x0, [sp, #24]                   ; 8-byte Folded Reload
	mov	w8, #1                          ; =0x1
	strb	w8, [x9, #8]
	ldur	x8, [x29, #-32]
	str	x8, [sp]                        ; 8-byte Folded Spill
	bl	__ZNKSt3__110unique_ptrINS_11__tree_nodeINS_12__value_typeIiiEEPvEENS_21__map_node_destructorINS_9allocatorIS5_EEEEEptB8ne180100Ev
	add	x0, x0, #28
	bl	__ZNSt3__112__value_typeIiiE11__get_valueB8ne180100Ev
	mov	x8, x0
	ldr	x0, [sp]                        ; 8-byte Folded Reload
	add	x1, x8, #4
Ltmp28:
	bl	__ZNSt3__116allocator_traitsINS_9allocatorINS_11__tree_nodeINS_12__value_typeIiiEEPvEEEEE9constructB8ne180100IiJEvEEvRS7_PT_DpOT0_
Ltmp29:
	b	LBB49_2
LBB49_2:
	ldr	x0, [sp, #24]                   ; 8-byte Folded Reload
	bl	__ZNSt3__110unique_ptrINS_11__tree_nodeINS_12__value_typeIiiEEPvEENS_21__map_node_destructorINS_9allocatorIS5_EEEEE11get_deleterB8ne180100Ev
	mov	w8, #1                          ; =0x1
	strb	w8, [x0, #9]
	mov	w8, #1                          ; =0x1
	and	w8, w8, #0x1
	and	w8, w8, #0x1
	sturb	w8, [x29, #-33]
	ldurb	w8, [x29, #-33]
	tbnz	w8, #0, LBB49_5
	b	LBB49_4
LBB49_3:
Ltmp30:
	mov	x8, x0
	ldr	x0, [sp, #24]                   ; 8-byte Folded Reload
	str	x8, [sp, #48]
	mov	x8, x1
	str	w8, [sp, #44]
Ltmp31:
	bl	__ZNSt3__110unique_ptrINS_11__tree_nodeINS_12__value_typeIiiEEPvEENS_21__map_node_destructorINS_9allocatorIS5_EEEEED1B8ne180100Ev
Ltmp32:
	b	LBB49_6
LBB49_4:
	ldr	x0, [sp, #24]                   ; 8-byte Folded Reload
	bl	__ZNSt3__110unique_ptrINS_11__tree_nodeINS_12__value_typeIiiEEPvEENS_21__map_node_destructorINS_9allocatorIS5_EEEEED1B8ne180100Ev
	b	LBB49_5
LBB49_5:
	ldp	x29, x30, [sp, #112]            ; 16-byte Folded Reload
	add	sp, sp, #128
	ret
LBB49_6:
	b	LBB49_7
LBB49_7:
	ldr	x0, [sp, #48]
	bl	__Unwind_Resume
LBB49_8:
Ltmp33:
	bl	___clang_call_terminate
Lfunc_end3:
	.cfi_endproc
	.section	__TEXT,__gcc_except_tab
	.p2align	2, 0x0
GCC_except_table49:
Lexception3:
	.byte	255                             ; @LPStart Encoding = omit
	.byte	155                             ; @TType Encoding = indirect pcrel sdata4
	.uleb128 Lttbase3-Lttbaseref3
Lttbaseref3:
	.byte	1                               ; Call site Encoding = uleb128
	.uleb128 Lcst_end3-Lcst_begin3
Lcst_begin3:
	.uleb128 Lfunc_begin3-Lfunc_begin3      ; >> Call Site 1 <<
	.uleb128 Ltmp26-Lfunc_begin3            ;   Call between Lfunc_begin3 and Ltmp26
	.byte	0                               ;     has no landing pad
	.byte	0                               ;   On action: cleanup
	.uleb128 Ltmp26-Lfunc_begin3            ; >> Call Site 2 <<
	.uleb128 Ltmp29-Ltmp26                  ;   Call between Ltmp26 and Ltmp29
	.uleb128 Ltmp30-Lfunc_begin3            ;     jumps to Ltmp30
	.byte	0                               ;   On action: cleanup
	.uleb128 Ltmp31-Lfunc_begin3            ; >> Call Site 3 <<
	.uleb128 Ltmp32-Ltmp31                  ;   Call between Ltmp31 and Ltmp32
	.uleb128 Ltmp33-Lfunc_begin3            ;     jumps to Ltmp33
	.byte	1                               ;   On action: 1
	.uleb128 Ltmp32-Lfunc_begin3            ; >> Call Site 4 <<
	.uleb128 Lfunc_end3-Ltmp32              ;   Call between Ltmp32 and Lfunc_end3
	.byte	0                               ;     has no landing pad
	.byte	0                               ;   On action: cleanup
Lcst_end3:
	.byte	1                               ; >> Action Record 1 <<
                                        ;   Catch TypeInfo 1
	.byte	0                               ;   No further actions
	.p2align	2, 0x0
                                        ; >> Catch TypeInfos <<
	.long	0                               ; TypeInfo 1
Lttbase3:
	.p2align	2, 0x0
                                        ; -- End function
	.section	__TEXT,__text,regular,pure_instructions
	.private_extern	__ZNSt3__16__treeINS_12__value_typeIiiEENS_19__map_value_compareIiS2_NS_4lessIiEELb1EEENS_9allocatorIS2_EEE16__insert_node_atEPNS_15__tree_end_nodeIPNS_16__tree_node_baseIPvEEEERSE_SE_ ; -- Begin function _ZNSt3__16__treeINS_12__value_typeIiiEENS_19__map_value_compareIiS2_NS_4lessIiEELb1EEENS_9allocatorIS2_EEE16__insert_node_atEPNS_15__tree_end_nodeIPNS_16__tree_node_baseIPvEEEERSE_SE_
	.globl	__ZNSt3__16__treeINS_12__value_typeIiiEENS_19__map_value_compareIiS2_NS_4lessIiEELb1EEENS_9allocatorIS2_EEE16__insert_node_atEPNS_15__tree_end_nodeIPNS_16__tree_node_baseIPvEEEERSE_SE_
	.weak_definition	__ZNSt3__16__treeINS_12__value_typeIiiEENS_19__map_value_compareIiS2_NS_4lessIiEELb1EEENS_9allocatorIS2_EEE16__insert_node_atEPNS_15__tree_end_nodeIPNS_16__tree_node_baseIPvEEEERSE_SE_
	.p2align	2
__ZNSt3__16__treeINS_12__value_typeIiiEENS_19__map_value_compareIiS2_NS_4lessIiEELb1EEENS_9allocatorIS2_EEE16__insert_node_atEPNS_15__tree_end_nodeIPNS_16__tree_node_baseIPvEEEERSE_SE_: ; @_ZNSt3__16__treeINS_12__value_typeIiiEENS_19__map_value_compareIiS2_NS_4lessIiEELb1EEENS_9allocatorIS2_EEE16__insert_node_atEPNS_15__tree_end_nodeIPNS_16__tree_node_baseIPvEEEERSE_SE_
	.cfi_startproc
; %bb.0:
	sub	sp, sp, #64
	stp	x29, x30, [sp, #48]             ; 16-byte Folded Spill
	add	x29, sp, #48
	.cfi_def_cfa w29, 16
	.cfi_offset w30, -8
	.cfi_offset w29, -16
	stur	x0, [x29, #-8]
	stur	x1, [x29, #-16]
	str	x2, [sp, #24]
	str	x3, [sp, #16]
	ldur	x0, [x29, #-8]
	str	x0, [sp, #8]                    ; 8-byte Folded Spill
	ldr	x8, [sp, #16]
                                        ; kill: def $x9 killed $xzr
	str	xzr, [x8]
	ldr	x8, [sp, #16]
	str	xzr, [x8, #8]
	ldur	x8, [x29, #-16]
	ldr	x9, [sp, #16]
	str	x8, [x9, #16]
	ldr	x8, [sp, #16]
	ldr	x9, [sp, #24]
	str	x8, [x9]
	bl	__ZNSt3__16__treeINS_12__value_typeIiiEENS_19__map_value_compareIiS2_NS_4lessIiEELb1EEENS_9allocatorIS2_EEE12__begin_nodeB8ne180100Ev
	ldr	x8, [x0]
	ldr	x8, [x8]
	subs	x8, x8, #0
	cset	w8, eq
	tbnz	w8, #0, LBB50_2
	b	LBB50_1
LBB50_1:
	ldr	x0, [sp, #8]                    ; 8-byte Folded Reload
	bl	__ZNSt3__16__treeINS_12__value_typeIiiEENS_19__map_value_compareIiS2_NS_4lessIiEELb1EEENS_9allocatorIS2_EEE12__begin_nodeB8ne180100Ev
	mov	x8, x0
	ldr	x0, [sp, #8]                    ; 8-byte Folded Reload
	ldr	x8, [x8]
	ldr	x8, [x8]
	str	x8, [sp]                        ; 8-byte Folded Spill
	bl	__ZNSt3__16__treeINS_12__value_typeIiiEENS_19__map_value_compareIiS2_NS_4lessIiEELb1EEENS_9allocatorIS2_EEE12__begin_nodeB8ne180100Ev
	ldr	x8, [sp]                        ; 8-byte Folded Reload
	str	x8, [x0]
	b	LBB50_2
LBB50_2:
	ldr	x0, [sp, #8]                    ; 8-byte Folded Reload
	bl	__ZNSt3__16__treeINS_12__value_typeIiiEENS_19__map_value_compareIiS2_NS_4lessIiEELb1EEENS_9allocatorIS2_EEE10__end_nodeB8ne180100Ev
	ldr	x0, [x0]
	ldr	x8, [sp, #24]
	ldr	x1, [x8]
	bl	__ZNSt3__127__tree_balance_after_insertB8ne180100IPNS_16__tree_node_baseIPvEEEEvT_S5_
	ldr	x0, [sp, #8]                    ; 8-byte Folded Reload
	bl	__ZNSt3__16__treeINS_12__value_typeIiiEENS_19__map_value_compareIiS2_NS_4lessIiEELb1EEENS_9allocatorIS2_EEE4sizeB8ne180100Ev
	ldr	x8, [x0]
	add	x8, x8, #1
	str	x8, [x0]
	ldp	x29, x30, [sp, #48]             ; 16-byte Folded Reload
	add	sp, sp, #64
	ret
	.cfi_endproc
                                        ; -- End function
	.private_extern	__ZNKSt3__110unique_ptrINS_11__tree_nodeINS_12__value_typeIiiEEPvEENS_21__map_node_destructorINS_9allocatorIS5_EEEEE3getB8ne180100Ev ; -- Begin function _ZNKSt3__110unique_ptrINS_11__tree_nodeINS_12__value_typeIiiEEPvEENS_21__map_node_destructorINS_9allocatorIS5_EEEEE3getB8ne180100Ev
	.globl	__ZNKSt3__110unique_ptrINS_11__tree_nodeINS_12__value_typeIiiEEPvEENS_21__map_node_destructorINS_9allocatorIS5_EEEEE3getB8ne180100Ev
	.weak_definition	__ZNKSt3__110unique_ptrINS_11__tree_nodeINS_12__value_typeIiiEEPvEENS_21__map_node_destructorINS_9allocatorIS5_EEEEE3getB8ne180100Ev
	.p2align	2
__ZNKSt3__110unique_ptrINS_11__tree_nodeINS_12__value_typeIiiEEPvEENS_21__map_node_destructorINS_9allocatorIS5_EEEEE3getB8ne180100Ev: ; @_ZNKSt3__110unique_ptrINS_11__tree_nodeINS_12__value_typeIiiEEPvEENS_21__map_node_destructorINS_9allocatorIS5_EEEEE3getB8ne180100Ev
	.cfi_startproc
; %bb.0:
	sub	sp, sp, #32
	stp	x29, x30, [sp, #16]             ; 16-byte Folded Spill
	add	x29, sp, #16
	.cfi_def_cfa w29, 16
	.cfi_offset w30, -8
	.cfi_offset w29, -16
	str	x0, [sp, #8]
	ldr	x0, [sp, #8]
	bl	__ZNKSt3__117__compressed_pairIPNS_11__tree_nodeINS_12__value_typeIiiEEPvEENS_21__map_node_destructorINS_9allocatorIS5_EEEEE5firstB8ne180100Ev
	ldr	x0, [x0]
	ldp	x29, x30, [sp, #16]             ; 16-byte Folded Reload
	add	sp, sp, #32
	ret
	.cfi_endproc
                                        ; -- End function
	.private_extern	__ZNSt3__110unique_ptrINS_11__tree_nodeINS_12__value_typeIiiEEPvEENS_21__map_node_destructorINS_9allocatorIS5_EEEEE7releaseB8ne180100Ev ; -- Begin function _ZNSt3__110unique_ptrINS_11__tree_nodeINS_12__value_typeIiiEEPvEENS_21__map_node_destructorINS_9allocatorIS5_EEEEE7releaseB8ne180100Ev
	.globl	__ZNSt3__110unique_ptrINS_11__tree_nodeINS_12__value_typeIiiEEPvEENS_21__map_node_destructorINS_9allocatorIS5_EEEEE7releaseB8ne180100Ev
	.weak_definition	__ZNSt3__110unique_ptrINS_11__tree_nodeINS_12__value_typeIiiEEPvEENS_21__map_node_destructorINS_9allocatorIS5_EEEEE7releaseB8ne180100Ev
	.p2align	2
__ZNSt3__110unique_ptrINS_11__tree_nodeINS_12__value_typeIiiEEPvEENS_21__map_node_destructorINS_9allocatorIS5_EEEEE7releaseB8ne180100Ev: ; @_ZNSt3__110unique_ptrINS_11__tree_nodeINS_12__value_typeIiiEEPvEENS_21__map_node_destructorINS_9allocatorIS5_EEEEE7releaseB8ne180100Ev
	.cfi_startproc
; %bb.0:
	sub	sp, sp, #48
	stp	x29, x30, [sp, #32]             ; 16-byte Folded Spill
	add	x29, sp, #32
	.cfi_def_cfa w29, 16
	.cfi_offset w30, -8
	.cfi_offset w29, -16
	stur	x0, [x29, #-8]
	ldur	x0, [x29, #-8]
	str	x0, [sp, #8]                    ; 8-byte Folded Spill
	bl	__ZNSt3__117__compressed_pairIPNS_11__tree_nodeINS_12__value_typeIiiEEPvEENS_21__map_node_destructorINS_9allocatorIS5_EEEEE5firstB8ne180100Ev
	mov	x8, x0
	ldr	x0, [sp, #8]                    ; 8-byte Folded Reload
	ldr	x8, [x8]
	str	x8, [sp, #16]
	bl	__ZNSt3__117__compressed_pairIPNS_11__tree_nodeINS_12__value_typeIiiEEPvEENS_21__map_node_destructorINS_9allocatorIS5_EEEEE5firstB8ne180100Ev
                                        ; kill: def $x8 killed $xzr
	str	xzr, [x0]
	ldr	x0, [sp, #16]
	ldp	x29, x30, [sp, #32]             ; 16-byte Folded Reload
	add	sp, sp, #48
	ret
	.cfi_endproc
                                        ; -- End function
	.private_extern	__ZNSt3__110unique_ptrINS_11__tree_nodeINS_12__value_typeIiiEEPvEENS_21__map_node_destructorINS_9allocatorIS5_EEEEED1B8ne180100Ev ; -- Begin function _ZNSt3__110unique_ptrINS_11__tree_nodeINS_12__value_typeIiiEEPvEENS_21__map_node_destructorINS_9allocatorIS5_EEEEED1B8ne180100Ev
	.globl	__ZNSt3__110unique_ptrINS_11__tree_nodeINS_12__value_typeIiiEEPvEENS_21__map_node_destructorINS_9allocatorIS5_EEEEED1B8ne180100Ev
	.weak_def_can_be_hidden	__ZNSt3__110unique_ptrINS_11__tree_nodeINS_12__value_typeIiiEEPvEENS_21__map_node_destructorINS_9allocatorIS5_EEEEED1B8ne180100Ev
	.p2align	2
__ZNSt3__110unique_ptrINS_11__tree_nodeINS_12__value_typeIiiEEPvEENS_21__map_node_destructorINS_9allocatorIS5_EEEEED1B8ne180100Ev: ; @_ZNSt3__110unique_ptrINS_11__tree_nodeINS_12__value_typeIiiEEPvEENS_21__map_node_destructorINS_9allocatorIS5_EEEEED1B8ne180100Ev
	.cfi_startproc
; %bb.0:
	sub	sp, sp, #32
	stp	x29, x30, [sp, #16]             ; 16-byte Folded Spill
	add	x29, sp, #16
	.cfi_def_cfa w29, 16
	.cfi_offset w30, -8
	.cfi_offset w29, -16
	str	x0, [sp, #8]
	ldr	x0, [sp, #8]
	str	x0, [sp]                        ; 8-byte Folded Spill
	bl	__ZNSt3__110unique_ptrINS_11__tree_nodeINS_12__value_typeIiiEEPvEENS_21__map_node_destructorINS_9allocatorIS5_EEEEED2B8ne180100Ev
	ldr	x0, [sp]                        ; 8-byte Folded Reload
	ldp	x29, x30, [sp, #16]             ; 16-byte Folded Reload
	add	sp, sp, #32
	ret
	.cfi_endproc
                                        ; -- End function
	.private_extern	__ZNKSt3__16__treeINS_12__value_typeIiiEENS_19__map_value_compareIiS2_NS_4lessIiEELb1EEENS_9allocatorIS2_EEE10__root_ptrB8ne180100Ev ; -- Begin function _ZNKSt3__16__treeINS_12__value_typeIiiEENS_19__map_value_compareIiS2_NS_4lessIiEELb1EEENS_9allocatorIS2_EEE10__root_ptrB8ne180100Ev
	.globl	__ZNKSt3__16__treeINS_12__value_typeIiiEENS_19__map_value_compareIiS2_NS_4lessIiEELb1EEENS_9allocatorIS2_EEE10__root_ptrB8ne180100Ev
	.weak_definition	__ZNKSt3__16__treeINS_12__value_typeIiiEENS_19__map_value_compareIiS2_NS_4lessIiEELb1EEENS_9allocatorIS2_EEE10__root_ptrB8ne180100Ev
	.p2align	2
__ZNKSt3__16__treeINS_12__value_typeIiiEENS_19__map_value_compareIiS2_NS_4lessIiEELb1EEENS_9allocatorIS2_EEE10__root_ptrB8ne180100Ev: ; @_ZNKSt3__16__treeINS_12__value_typeIiiEENS_19__map_value_compareIiS2_NS_4lessIiEELb1EEENS_9allocatorIS2_EEE10__root_ptrB8ne180100Ev
	.cfi_startproc
; %bb.0:
	sub	sp, sp, #32
	stp	x29, x30, [sp, #16]             ; 16-byte Folded Spill
	add	x29, sp, #16
	.cfi_def_cfa w29, 16
	.cfi_offset w30, -8
	.cfi_offset w29, -16
	str	x0, [sp, #8]
	ldr	x0, [sp, #8]
	bl	__ZNKSt3__16__treeINS_12__value_typeIiiEENS_19__map_value_compareIiS2_NS_4lessIiEELb1EEENS_9allocatorIS2_EEE10__end_nodeB8ne180100Ev
	ldp	x29, x30, [sp, #16]             ; 16-byte Folded Reload
	add	sp, sp, #32
	ret
	.cfi_endproc
                                        ; -- End function
	.private_extern	__ZNSt3__16__treeINS_12__value_typeIiiEENS_19__map_value_compareIiS2_NS_4lessIiEELb1EEENS_9allocatorIS2_EEE10value_compB8ne180100Ev ; -- Begin function _ZNSt3__16__treeINS_12__value_typeIiiEENS_19__map_value_compareIiS2_NS_4lessIiEELb1EEENS_9allocatorIS2_EEE10value_compB8ne180100Ev
	.globl	__ZNSt3__16__treeINS_12__value_typeIiiEENS_19__map_value_compareIiS2_NS_4lessIiEELb1EEENS_9allocatorIS2_EEE10value_compB8ne180100Ev
	.weak_definition	__ZNSt3__16__treeINS_12__value_typeIiiEENS_19__map_value_compareIiS2_NS_4lessIiEELb1EEENS_9allocatorIS2_EEE10value_compB8ne180100Ev
	.p2align	2
__ZNSt3__16__treeINS_12__value_typeIiiEENS_19__map_value_compareIiS2_NS_4lessIiEELb1EEENS_9allocatorIS2_EEE10value_compB8ne180100Ev: ; @_ZNSt3__16__treeINS_12__value_typeIiiEENS_19__map_value_compareIiS2_NS_4lessIiEELb1EEENS_9allocatorIS2_EEE10value_compB8ne180100Ev
	.cfi_startproc
; %bb.0:
	sub	sp, sp, #32
	stp	x29, x30, [sp, #16]             ; 16-byte Folded Spill
	add	x29, sp, #16
	.cfi_def_cfa w29, 16
	.cfi_offset w30, -8
	.cfi_offset w29, -16
	str	x0, [sp, #8]
	ldr	x8, [sp, #8]
	add	x0, x8, #16
	bl	__ZNSt3__117__compressed_pairImNS_19__map_value_compareIiNS_12__value_typeIiiEENS_4lessIiEELb1EEEE6secondB8ne180100Ev
	ldp	x29, x30, [sp, #16]             ; 16-byte Folded Reload
	add	sp, sp, #32
	ret
	.cfi_endproc
                                        ; -- End function
	.private_extern	__ZNKSt3__119__map_value_compareIiNS_12__value_typeIiiEENS_4lessIiEELb1EEclB8ne180100ERKiRKS2_ ; -- Begin function _ZNKSt3__119__map_value_compareIiNS_12__value_typeIiiEENS_4lessIiEELb1EEclB8ne180100ERKiRKS2_
	.globl	__ZNKSt3__119__map_value_compareIiNS_12__value_typeIiiEENS_4lessIiEELb1EEclB8ne180100ERKiRKS2_
	.weak_definition	__ZNKSt3__119__map_value_compareIiNS_12__value_typeIiiEENS_4lessIiEELb1EEclB8ne180100ERKiRKS2_
	.p2align	2
__ZNKSt3__119__map_value_compareIiNS_12__value_typeIiiEENS_4lessIiEELb1EEclB8ne180100ERKiRKS2_: ; @_ZNKSt3__119__map_value_compareIiNS_12__value_typeIiiEENS_4lessIiEELb1EEclB8ne180100ERKiRKS2_
	.cfi_startproc
; %bb.0:
	sub	sp, sp, #64
	stp	x29, x30, [sp, #48]             ; 16-byte Folded Spill
	add	x29, sp, #48
	.cfi_def_cfa w29, 16
	.cfi_offset w30, -8
	.cfi_offset w29, -16
	stur	x0, [x29, #-8]
	stur	x1, [x29, #-16]
	str	x2, [sp, #24]
	ldur	x8, [x29, #-8]
	str	x8, [sp, #16]                   ; 8-byte Folded Spill
	ldur	x8, [x29, #-16]
	str	x8, [sp, #8]                    ; 8-byte Folded Spill
	ldr	x0, [sp, #24]
	bl	__ZNKSt3__112__value_typeIiiE11__get_valueB8ne180100Ev
	ldr	x1, [sp, #8]                    ; 8-byte Folded Reload
	mov	x2, x0
	ldr	x0, [sp, #16]                   ; 8-byte Folded Reload
	bl	__ZNKSt3__14lessIiEclB8ne180100ERKiS3_
	and	w0, w0, #0x1
	ldp	x29, x30, [sp, #48]             ; 16-byte Folded Reload
	add	sp, sp, #64
	ret
	.cfi_endproc
                                        ; -- End function
	.private_extern	__ZNKSt3__119__map_value_compareIiNS_12__value_typeIiiEENS_4lessIiEELb1EEclB8ne180100ERKS2_RKi ; -- Begin function _ZNKSt3__119__map_value_compareIiNS_12__value_typeIiiEENS_4lessIiEELb1EEclB8ne180100ERKS2_RKi
	.globl	__ZNKSt3__119__map_value_compareIiNS_12__value_typeIiiEENS_4lessIiEELb1EEclB8ne180100ERKS2_RKi
	.weak_definition	__ZNKSt3__119__map_value_compareIiNS_12__value_typeIiiEENS_4lessIiEELb1EEclB8ne180100ERKS2_RKi
	.p2align	2
__ZNKSt3__119__map_value_compareIiNS_12__value_typeIiiEENS_4lessIiEELb1EEclB8ne180100ERKS2_RKi: ; @_ZNKSt3__119__map_value_compareIiNS_12__value_typeIiiEENS_4lessIiEELb1EEclB8ne180100ERKS2_RKi
	.cfi_startproc
; %bb.0:
	sub	sp, sp, #48
	stp	x29, x30, [sp, #32]             ; 16-byte Folded Spill
	add	x29, sp, #32
	.cfi_def_cfa w29, 16
	.cfi_offset w30, -8
	.cfi_offset w29, -16
	stur	x0, [x29, #-8]
	str	x1, [sp, #16]
	str	x2, [sp, #8]
	ldur	x8, [x29, #-8]
	str	x8, [sp]                        ; 8-byte Folded Spill
	ldr	x0, [sp, #16]
	bl	__ZNKSt3__112__value_typeIiiE11__get_valueB8ne180100Ev
	mov	x1, x0
	ldr	x0, [sp]                        ; 8-byte Folded Reload
	ldr	x2, [sp, #8]
	bl	__ZNKSt3__14lessIiEclB8ne180100ERKiS3_
	and	w0, w0, #0x1
	ldp	x29, x30, [sp, #32]             ; 16-byte Folded Reload
	add	sp, sp, #48
	ret
	.cfi_endproc
                                        ; -- End function
	.private_extern	__ZNSt3__117__compressed_pairImNS_19__map_value_compareIiNS_12__value_typeIiiEENS_4lessIiEELb1EEEE6secondB8ne180100Ev ; -- Begin function _ZNSt3__117__compressed_pairImNS_19__map_value_compareIiNS_12__value_typeIiiEENS_4lessIiEELb1EEEE6secondB8ne180100Ev
	.globl	__ZNSt3__117__compressed_pairImNS_19__map_value_compareIiNS_12__value_typeIiiEENS_4lessIiEELb1EEEE6secondB8ne180100Ev
	.weak_definition	__ZNSt3__117__compressed_pairImNS_19__map_value_compareIiNS_12__value_typeIiiEENS_4lessIiEELb1EEEE6secondB8ne180100Ev
	.p2align	2
__ZNSt3__117__compressed_pairImNS_19__map_value_compareIiNS_12__value_typeIiiEENS_4lessIiEELb1EEEE6secondB8ne180100Ev: ; @_ZNSt3__117__compressed_pairImNS_19__map_value_compareIiNS_12__value_typeIiiEENS_4lessIiEELb1EEEE6secondB8ne180100Ev
	.cfi_startproc
; %bb.0:
	sub	sp, sp, #32
	stp	x29, x30, [sp, #16]             ; 16-byte Folded Spill
	add	x29, sp, #16
	.cfi_def_cfa w29, 16
	.cfi_offset w30, -8
	.cfi_offset w29, -16
	str	x0, [sp, #8]
	ldr	x0, [sp, #8]
	bl	__ZNSt3__122__compressed_pair_elemINS_19__map_value_compareIiNS_12__value_typeIiiEENS_4lessIiEELb1EEELi1ELb1EE5__getB8ne180100Ev
	ldp	x29, x30, [sp, #16]             ; 16-byte Folded Reload
	add	sp, sp, #32
	ret
	.cfi_endproc
                                        ; -- End function
	.private_extern	__ZNSt3__122__compressed_pair_elemINS_19__map_value_compareIiNS_12__value_typeIiiEENS_4lessIiEELb1EEELi1ELb1EE5__getB8ne180100Ev ; -- Begin function _ZNSt3__122__compressed_pair_elemINS_19__map_value_compareIiNS_12__value_typeIiiEENS_4lessIiEELb1EEELi1ELb1EE5__getB8ne180100Ev
	.globl	__ZNSt3__122__compressed_pair_elemINS_19__map_value_compareIiNS_12__value_typeIiiEENS_4lessIiEELb1EEELi1ELb1EE5__getB8ne180100Ev
	.weak_definition	__ZNSt3__122__compressed_pair_elemINS_19__map_value_compareIiNS_12__value_typeIiiEENS_4lessIiEELb1EEELi1ELb1EE5__getB8ne180100Ev
	.p2align	2
__ZNSt3__122__compressed_pair_elemINS_19__map_value_compareIiNS_12__value_typeIiiEENS_4lessIiEELb1EEELi1ELb1EE5__getB8ne180100Ev: ; @_ZNSt3__122__compressed_pair_elemINS_19__map_value_compareIiNS_12__value_typeIiiEENS_4lessIiEELb1EEELi1ELb1EE5__getB8ne180100Ev
	.cfi_startproc
; %bb.0:
	sub	sp, sp, #16
	.cfi_def_cfa_offset 16
	str	x0, [sp, #8]
	ldr	x0, [sp, #8]
	add	sp, sp, #16
	ret
	.cfi_endproc
                                        ; -- End function
	.private_extern	__ZNKSt3__14lessIiEclB8ne180100ERKiS3_ ; -- Begin function _ZNKSt3__14lessIiEclB8ne180100ERKiS3_
	.globl	__ZNKSt3__14lessIiEclB8ne180100ERKiS3_
	.weak_definition	__ZNKSt3__14lessIiEclB8ne180100ERKiS3_
	.p2align	2
__ZNKSt3__14lessIiEclB8ne180100ERKiS3_: ; @_ZNKSt3__14lessIiEclB8ne180100ERKiS3_
	.cfi_startproc
; %bb.0:
	sub	sp, sp, #32
	.cfi_def_cfa_offset 32
	str	x0, [sp, #24]
	str	x1, [sp, #16]
	str	x2, [sp, #8]
	ldr	x8, [sp, #16]
	ldr	w8, [x8]
	ldr	x9, [sp, #8]
	ldr	w9, [x9]
	subs	w8, w8, w9
	cset	w8, lt
	and	w0, w8, #0x1
	add	sp, sp, #32
	ret
	.cfi_endproc
                                        ; -- End function
	.private_extern	__ZNKSt3__112__value_typeIiiE11__get_valueB8ne180100Ev ; -- Begin function _ZNKSt3__112__value_typeIiiE11__get_valueB8ne180100Ev
	.globl	__ZNKSt3__112__value_typeIiiE11__get_valueB8ne180100Ev
	.weak_definition	__ZNKSt3__112__value_typeIiiE11__get_valueB8ne180100Ev
	.p2align	2
__ZNKSt3__112__value_typeIiiE11__get_valueB8ne180100Ev: ; @_ZNKSt3__112__value_typeIiiE11__get_valueB8ne180100Ev
	.cfi_startproc
; %bb.0:
	sub	sp, sp, #16
	.cfi_def_cfa_offset 16
	str	x0, [sp, #8]
	ldr	x0, [sp, #8]
	add	sp, sp, #16
	ret
	.cfi_endproc
                                        ; -- End function
	.private_extern	__ZNSt3__116allocator_traitsINS_9allocatorINS_11__tree_nodeINS_12__value_typeIiiEEPvEEEEE8allocateB8ne180100ERS7_m ; -- Begin function _ZNSt3__116allocator_traitsINS_9allocatorINS_11__tree_nodeINS_12__value_typeIiiEEPvEEEEE8allocateB8ne180100ERS7_m
	.globl	__ZNSt3__116allocator_traitsINS_9allocatorINS_11__tree_nodeINS_12__value_typeIiiEEPvEEEEE8allocateB8ne180100ERS7_m
	.weak_definition	__ZNSt3__116allocator_traitsINS_9allocatorINS_11__tree_nodeINS_12__value_typeIiiEEPvEEEEE8allocateB8ne180100ERS7_m
	.p2align	2
__ZNSt3__116allocator_traitsINS_9allocatorINS_11__tree_nodeINS_12__value_typeIiiEEPvEEEEE8allocateB8ne180100ERS7_m: ; @_ZNSt3__116allocator_traitsINS_9allocatorINS_11__tree_nodeINS_12__value_typeIiiEEPvEEEEE8allocateB8ne180100ERS7_m
	.cfi_startproc
; %bb.0:
	sub	sp, sp, #32
	stp	x29, x30, [sp, #16]             ; 16-byte Folded Spill
	add	x29, sp, #16
	.cfi_def_cfa w29, 16
	.cfi_offset w30, -8
	.cfi_offset w29, -16
	str	x0, [sp, #8]
	str	x1, [sp]
	ldr	x0, [sp, #8]
	ldr	x1, [sp]
	bl	__ZNSt3__19allocatorINS_11__tree_nodeINS_12__value_typeIiiEEPvEEE8allocateB8ne180100Em
	ldp	x29, x30, [sp, #16]             ; 16-byte Folded Reload
	add	sp, sp, #32
	ret
	.cfi_endproc
                                        ; -- End function
	.private_extern	__ZNSt3__121__map_node_destructorINS_9allocatorINS_11__tree_nodeINS_12__value_typeIiiEEPvEEEEEC1B8ne180100ERS7_ ; -- Begin function _ZNSt3__121__map_node_destructorINS_9allocatorINS_11__tree_nodeINS_12__value_typeIiiEEPvEEEEEC1B8ne180100ERS7_
	.globl	__ZNSt3__121__map_node_destructorINS_9allocatorINS_11__tree_nodeINS_12__value_typeIiiEEPvEEEEEC1B8ne180100ERS7_
	.weak_def_can_be_hidden	__ZNSt3__121__map_node_destructorINS_9allocatorINS_11__tree_nodeINS_12__value_typeIiiEEPvEEEEEC1B8ne180100ERS7_
	.p2align	2
__ZNSt3__121__map_node_destructorINS_9allocatorINS_11__tree_nodeINS_12__value_typeIiiEEPvEEEEEC1B8ne180100ERS7_: ; @_ZNSt3__121__map_node_destructorINS_9allocatorINS_11__tree_nodeINS_12__value_typeIiiEEPvEEEEEC1B8ne180100ERS7_
	.cfi_startproc
; %bb.0:
	sub	sp, sp, #48
	stp	x29, x30, [sp, #32]             ; 16-byte Folded Spill
	add	x29, sp, #32
	.cfi_def_cfa w29, 16
	.cfi_offset w30, -8
	.cfi_offset w29, -16
	stur	x0, [x29, #-8]
	str	x1, [sp, #16]
	ldur	x0, [x29, #-8]
	str	x0, [sp, #8]                    ; 8-byte Folded Spill
	ldr	x1, [sp, #16]
	bl	__ZNSt3__121__map_node_destructorINS_9allocatorINS_11__tree_nodeINS_12__value_typeIiiEEPvEEEEEC2B8ne180100ERS7_
	ldr	x0, [sp, #8]                    ; 8-byte Folded Reload
	ldp	x29, x30, [sp, #32]             ; 16-byte Folded Reload
	add	sp, sp, #48
	ret
	.cfi_endproc
                                        ; -- End function
	.globl	__ZNSt3__110unique_ptrINS_11__tree_nodeINS_12__value_typeIiiEEPvEENS_21__map_node_destructorINS_9allocatorIS5_EEEEEC1B8ne180100ILb1EvEEPS5_NS_16__dependent_typeINS_27__unique_ptr_deleter_sfinaeIS9_EEXT_EE20__good_rval_ref_typeE ; -- Begin function _ZNSt3__110unique_ptrINS_11__tree_nodeINS_12__value_typeIiiEEPvEENS_21__map_node_destructorINS_9allocatorIS5_EEEEEC1B8ne180100ILb1EvEEPS5_NS_16__dependent_typeINS_27__unique_ptr_deleter_sfinaeIS9_EEXT_EE20__good_rval_ref_typeE
	.weak_def_can_be_hidden	__ZNSt3__110unique_ptrINS_11__tree_nodeINS_12__value_typeIiiEEPvEENS_21__map_node_destructorINS_9allocatorIS5_EEEEEC1B8ne180100ILb1EvEEPS5_NS_16__dependent_typeINS_27__unique_ptr_deleter_sfinaeIS9_EEXT_EE20__good_rval_ref_typeE
	.p2align	2
__ZNSt3__110unique_ptrINS_11__tree_nodeINS_12__value_typeIiiEEPvEENS_21__map_node_destructorINS_9allocatorIS5_EEEEEC1B8ne180100ILb1EvEEPS5_NS_16__dependent_typeINS_27__unique_ptr_deleter_sfinaeIS9_EEXT_EE20__good_rval_ref_typeE: ; @_ZNSt3__110unique_ptrINS_11__tree_nodeINS_12__value_typeIiiEEPvEENS_21__map_node_destructorINS_9allocatorIS5_EEEEEC1B8ne180100ILb1EvEEPS5_NS_16__dependent_typeINS_27__unique_ptr_deleter_sfinaeIS9_EEXT_EE20__good_rval_ref_typeE
	.cfi_startproc
; %bb.0:
	sub	sp, sp, #48
	stp	x29, x30, [sp, #32]             ; 16-byte Folded Spill
	add	x29, sp, #32
	.cfi_def_cfa w29, 16
	.cfi_offset w30, -8
	.cfi_offset w29, -16
	stur	x0, [x29, #-8]
	str	x1, [sp, #16]
	str	x2, [sp, #8]
	ldur	x0, [x29, #-8]
	str	x0, [sp]                        ; 8-byte Folded Spill
	ldr	x1, [sp, #16]
	ldr	x2, [sp, #8]
	bl	__ZNSt3__110unique_ptrINS_11__tree_nodeINS_12__value_typeIiiEEPvEENS_21__map_node_destructorINS_9allocatorIS5_EEEEEC2B8ne180100ILb1EvEEPS5_NS_16__dependent_typeINS_27__unique_ptr_deleter_sfinaeIS9_EEXT_EE20__good_rval_ref_typeE
	ldr	x0, [sp]                        ; 8-byte Folded Reload
	ldp	x29, x30, [sp, #32]             ; 16-byte Folded Reload
	add	sp, sp, #48
	ret
	.cfi_endproc
                                        ; -- End function
	.globl	__ZNSt3__116allocator_traitsINS_9allocatorINS_11__tree_nodeINS_12__value_typeIiiEEPvEEEEE9constructB8ne180100IKiJRSA_EvEEvRS7_PT_DpOT0_ ; -- Begin function _ZNSt3__116allocator_traitsINS_9allocatorINS_11__tree_nodeINS_12__value_typeIiiEEPvEEEEE9constructB8ne180100IKiJRSA_EvEEvRS7_PT_DpOT0_
	.weak_definition	__ZNSt3__116allocator_traitsINS_9allocatorINS_11__tree_nodeINS_12__value_typeIiiEEPvEEEEE9constructB8ne180100IKiJRSA_EvEEvRS7_PT_DpOT0_
	.p2align	2
__ZNSt3__116allocator_traitsINS_9allocatorINS_11__tree_nodeINS_12__value_typeIiiEEPvEEEEE9constructB8ne180100IKiJRSA_EvEEvRS7_PT_DpOT0_: ; @_ZNSt3__116allocator_traitsINS_9allocatorINS_11__tree_nodeINS_12__value_typeIiiEEPvEEEEE9constructB8ne180100IKiJRSA_EvEEvRS7_PT_DpOT0_
	.cfi_startproc
; %bb.0:
	sub	sp, sp, #48
	stp	x29, x30, [sp, #32]             ; 16-byte Folded Spill
	add	x29, sp, #32
	.cfi_def_cfa w29, 16
	.cfi_offset w30, -8
	.cfi_offset w29, -16
	stur	x0, [x29, #-8]
	str	x1, [sp, #16]
	str	x2, [sp, #8]
	ldur	x0, [x29, #-8]
	ldr	x1, [sp, #16]
	ldr	x2, [sp, #8]
	bl	__ZNSt3__19allocatorINS_11__tree_nodeINS_12__value_typeIiiEEPvEEE9constructB8ne180100IKiJRS8_EEEvPT_DpOT0_
	ldp	x29, x30, [sp, #32]             ; 16-byte Folded Reload
	add	sp, sp, #48
	ret
	.cfi_endproc
                                        ; -- End function
	.private_extern	__ZNKSt3__110unique_ptrINS_11__tree_nodeINS_12__value_typeIiiEEPvEENS_21__map_node_destructorINS_9allocatorIS5_EEEEEptB8ne180100Ev ; -- Begin function _ZNKSt3__110unique_ptrINS_11__tree_nodeINS_12__value_typeIiiEEPvEENS_21__map_node_destructorINS_9allocatorIS5_EEEEEptB8ne180100Ev
	.globl	__ZNKSt3__110unique_ptrINS_11__tree_nodeINS_12__value_typeIiiEEPvEENS_21__map_node_destructorINS_9allocatorIS5_EEEEEptB8ne180100Ev
	.weak_definition	__ZNKSt3__110unique_ptrINS_11__tree_nodeINS_12__value_typeIiiEEPvEENS_21__map_node_destructorINS_9allocatorIS5_EEEEEptB8ne180100Ev
	.p2align	2
__ZNKSt3__110unique_ptrINS_11__tree_nodeINS_12__value_typeIiiEEPvEENS_21__map_node_destructorINS_9allocatorIS5_EEEEEptB8ne180100Ev: ; @_ZNKSt3__110unique_ptrINS_11__tree_nodeINS_12__value_typeIiiEEPvEENS_21__map_node_destructorINS_9allocatorIS5_EEEEEptB8ne180100Ev
	.cfi_startproc
; %bb.0:
	sub	sp, sp, #32
	stp	x29, x30, [sp, #16]             ; 16-byte Folded Spill
	add	x29, sp, #16
	.cfi_def_cfa w29, 16
	.cfi_offset w30, -8
	.cfi_offset w29, -16
	str	x0, [sp, #8]
	ldr	x0, [sp, #8]
	bl	__ZNKSt3__117__compressed_pairIPNS_11__tree_nodeINS_12__value_typeIiiEEPvEENS_21__map_node_destructorINS_9allocatorIS5_EEEEE5firstB8ne180100Ev
	ldr	x0, [x0]
	ldp	x29, x30, [sp, #16]             ; 16-byte Folded Reload
	add	sp, sp, #32
	ret
	.cfi_endproc
                                        ; -- End function
	.private_extern	__ZNSt3__110unique_ptrINS_11__tree_nodeINS_12__value_typeIiiEEPvEENS_21__map_node_destructorINS_9allocatorIS5_EEEEE11get_deleterB8ne180100Ev ; -- Begin function _ZNSt3__110unique_ptrINS_11__tree_nodeINS_12__value_typeIiiEEPvEENS_21__map_node_destructorINS_9allocatorIS5_EEEEE11get_deleterB8ne180100Ev
	.globl	__ZNSt3__110unique_ptrINS_11__tree_nodeINS_12__value_typeIiiEEPvEENS_21__map_node_destructorINS_9allocatorIS5_EEEEE11get_deleterB8ne180100Ev
	.weak_definition	__ZNSt3__110unique_ptrINS_11__tree_nodeINS_12__value_typeIiiEEPvEENS_21__map_node_destructorINS_9allocatorIS5_EEEEE11get_deleterB8ne180100Ev
	.p2align	2
__ZNSt3__110unique_ptrINS_11__tree_nodeINS_12__value_typeIiiEEPvEENS_21__map_node_destructorINS_9allocatorIS5_EEEEE11get_deleterB8ne180100Ev: ; @_ZNSt3__110unique_ptrINS_11__tree_nodeINS_12__value_typeIiiEEPvEENS_21__map_node_destructorINS_9allocatorIS5_EEEEE11get_deleterB8ne180100Ev
	.cfi_startproc
; %bb.0:
	sub	sp, sp, #32
	stp	x29, x30, [sp, #16]             ; 16-byte Folded Spill
	add	x29, sp, #16
	.cfi_def_cfa w29, 16
	.cfi_offset w30, -8
	.cfi_offset w29, -16
	str	x0, [sp, #8]
	ldr	x0, [sp, #8]
	bl	__ZNSt3__117__compressed_pairIPNS_11__tree_nodeINS_12__value_typeIiiEEPvEENS_21__map_node_destructorINS_9allocatorIS5_EEEEE6secondB8ne180100Ev
	ldp	x29, x30, [sp, #16]             ; 16-byte Folded Reload
	add	sp, sp, #32
	ret
	.cfi_endproc
                                        ; -- End function
	.globl	__ZNSt3__116allocator_traitsINS_9allocatorINS_11__tree_nodeINS_12__value_typeIiiEEPvEEEEE9constructB8ne180100IiJEvEEvRS7_PT_DpOT0_ ; -- Begin function _ZNSt3__116allocator_traitsINS_9allocatorINS_11__tree_nodeINS_12__value_typeIiiEEPvEEEEE9constructB8ne180100IiJEvEEvRS7_PT_DpOT0_
	.weak_definition	__ZNSt3__116allocator_traitsINS_9allocatorINS_11__tree_nodeINS_12__value_typeIiiEEPvEEEEE9constructB8ne180100IiJEvEEvRS7_PT_DpOT0_
	.p2align	2
__ZNSt3__116allocator_traitsINS_9allocatorINS_11__tree_nodeINS_12__value_typeIiiEEPvEEEEE9constructB8ne180100IiJEvEEvRS7_PT_DpOT0_: ; @_ZNSt3__116allocator_traitsINS_9allocatorINS_11__tree_nodeINS_12__value_typeIiiEEPvEEEEE9constructB8ne180100IiJEvEEvRS7_PT_DpOT0_
	.cfi_startproc
; %bb.0:
	sub	sp, sp, #32
	stp	x29, x30, [sp, #16]             ; 16-byte Folded Spill
	add	x29, sp, #16
	.cfi_def_cfa w29, 16
	.cfi_offset w30, -8
	.cfi_offset w29, -16
	str	x0, [sp, #8]
	str	x1, [sp]
	ldr	x0, [sp, #8]
	ldr	x1, [sp]
	bl	__ZNSt3__19allocatorINS_11__tree_nodeINS_12__value_typeIiiEEPvEEE9constructB8ne180100IiJEEEvPT_DpOT0_
	ldp	x29, x30, [sp, #16]             ; 16-byte Folded Reload
	add	sp, sp, #32
	ret
	.cfi_endproc
                                        ; -- End function
	.private_extern	__ZNSt3__19allocatorINS_11__tree_nodeINS_12__value_typeIiiEEPvEEE8allocateB8ne180100Em ; -- Begin function _ZNSt3__19allocatorINS_11__tree_nodeINS_12__value_typeIiiEEPvEEE8allocateB8ne180100Em
	.globl	__ZNSt3__19allocatorINS_11__tree_nodeINS_12__value_typeIiiEEPvEEE8allocateB8ne180100Em
	.weak_definition	__ZNSt3__19allocatorINS_11__tree_nodeINS_12__value_typeIiiEEPvEEE8allocateB8ne180100Em
	.p2align	2
__ZNSt3__19allocatorINS_11__tree_nodeINS_12__value_typeIiiEEPvEEE8allocateB8ne180100Em: ; @_ZNSt3__19allocatorINS_11__tree_nodeINS_12__value_typeIiiEEPvEEE8allocateB8ne180100Em
	.cfi_startproc
; %bb.0:
	sub	sp, sp, #48
	stp	x29, x30, [sp, #32]             ; 16-byte Folded Spill
	add	x29, sp, #32
	.cfi_def_cfa w29, 16
	.cfi_offset w30, -8
	.cfi_offset w29, -16
	str	x0, [sp, #16]
	str	x1, [sp, #8]
	ldr	x0, [sp, #16]
	ldr	x8, [sp, #8]
	str	x8, [sp]                        ; 8-byte Folded Spill
	bl	__ZNSt3__116allocator_traitsINS_9allocatorINS_11__tree_nodeINS_12__value_typeIiiEEPvEEEEE8max_sizeB8ne180100IS7_vEEmRKS7_
	ldr	x8, [sp]                        ; 8-byte Folded Reload
	subs	x8, x8, x0
	cset	w8, ls
	tbnz	w8, #0, LBB69_2
	b	LBB69_1
LBB69_1:
	bl	__ZSt28__throw_bad_array_new_lengthB8ne180100v
LBB69_2:
	bl	__ZNSt3__130__libcpp_is_constant_evaluatedB8ne180100Ev
	tbz	w0, #0, LBB69_4
	b	LBB69_3
LBB69_3:
	ldr	x8, [sp, #8]
	mov	x9, #40                         ; =0x28
	mul	x0, x8, x9
	bl	__Znwm
	stur	x0, [x29, #-8]
	b	LBB69_5
LBB69_4:
	ldr	x8, [sp, #8]
	mov	x9, #40                         ; =0x28
	mul	x0, x8, x9
	mov	x1, #8                          ; =0x8
	bl	__ZNSt3__117__libcpp_allocateB8ne180100Emm
	stur	x0, [x29, #-8]
	b	LBB69_5
LBB69_5:
	ldur	x0, [x29, #-8]
	ldp	x29, x30, [sp, #32]             ; 16-byte Folded Reload
	add	sp, sp, #48
	ret
	.cfi_endproc
                                        ; -- End function
	.globl	__ZNSt3__116allocator_traitsINS_9allocatorINS_11__tree_nodeINS_12__value_typeIiiEEPvEEEEE8max_sizeB8ne180100IS7_vEEmRKS7_ ; -- Begin function _ZNSt3__116allocator_traitsINS_9allocatorINS_11__tree_nodeINS_12__value_typeIiiEEPvEEEEE8max_sizeB8ne180100IS7_vEEmRKS7_
	.weak_definition	__ZNSt3__116allocator_traitsINS_9allocatorINS_11__tree_nodeINS_12__value_typeIiiEEPvEEEEE8max_sizeB8ne180100IS7_vEEmRKS7_
	.p2align	2
__ZNSt3__116allocator_traitsINS_9allocatorINS_11__tree_nodeINS_12__value_typeIiiEEPvEEEEE8max_sizeB8ne180100IS7_vEEmRKS7_: ; @_ZNSt3__116allocator_traitsINS_9allocatorINS_11__tree_nodeINS_12__value_typeIiiEEPvEEEEE8max_sizeB8ne180100IS7_vEEmRKS7_
	.cfi_startproc
; %bb.0:
	sub	sp, sp, #32
	stp	x29, x30, [sp, #16]             ; 16-byte Folded Spill
	add	x29, sp, #16
	.cfi_def_cfa w29, 16
	.cfi_offset w30, -8
	.cfi_offset w29, -16
	str	x0, [sp, #8]
	ldr	x0, [sp, #8]
	bl	__ZNKSt3__19allocatorINS_11__tree_nodeINS_12__value_typeIiiEEPvEEE8max_sizeB8ne180100Ev
	ldp	x29, x30, [sp, #16]             ; 16-byte Folded Reload
	add	sp, sp, #32
	ret
	.cfi_endproc
                                        ; -- End function
	.private_extern	__ZSt28__throw_bad_array_new_lengthB8ne180100v ; -- Begin function _ZSt28__throw_bad_array_new_lengthB8ne180100v
	.globl	__ZSt28__throw_bad_array_new_lengthB8ne180100v
	.weak_definition	__ZSt28__throw_bad_array_new_lengthB8ne180100v
	.p2align	2
__ZSt28__throw_bad_array_new_lengthB8ne180100v: ; @_ZSt28__throw_bad_array_new_lengthB8ne180100v
	.cfi_startproc
; %bb.0:
	sub	sp, sp, #32
	stp	x29, x30, [sp, #16]             ; 16-byte Folded Spill
	add	x29, sp, #16
	.cfi_def_cfa w29, 16
	.cfi_offset w30, -8
	.cfi_offset w29, -16
	mov	x0, #8                          ; =0x8
	bl	___cxa_allocate_exception
	str	x0, [sp, #8]                    ; 8-byte Folded Spill
	bl	__ZNSt20bad_array_new_lengthC1Ev
	ldr	x0, [sp, #8]                    ; 8-byte Folded Reload
	adrp	x1, __ZTISt20bad_array_new_length@GOTPAGE
	ldr	x1, [x1, __ZTISt20bad_array_new_length@GOTPAGEOFF]
	adrp	x2, __ZNSt20bad_array_new_lengthD1Ev@GOTPAGE
	ldr	x2, [x2, __ZNSt20bad_array_new_lengthD1Ev@GOTPAGEOFF]
	bl	___cxa_throw
	.cfi_endproc
                                        ; -- End function
	.private_extern	__ZNSt3__117__libcpp_allocateB8ne180100Emm ; -- Begin function _ZNSt3__117__libcpp_allocateB8ne180100Emm
	.globl	__ZNSt3__117__libcpp_allocateB8ne180100Emm
	.weak_definition	__ZNSt3__117__libcpp_allocateB8ne180100Emm
	.p2align	2
__ZNSt3__117__libcpp_allocateB8ne180100Emm: ; @_ZNSt3__117__libcpp_allocateB8ne180100Emm
	.cfi_startproc
; %bb.0:
	sub	sp, sp, #32
	stp	x29, x30, [sp, #16]             ; 16-byte Folded Spill
	add	x29, sp, #16
	.cfi_def_cfa w29, 16
	.cfi_offset w30, -8
	.cfi_offset w29, -16
	str	x0, [sp, #8]
	str	x1, [sp]
	ldr	x0, [sp, #8]
	bl	__ZNSt3__121__libcpp_operator_newB8ne180100IJmEEEPvDpT_
	ldp	x29, x30, [sp, #16]             ; 16-byte Folded Reload
	add	sp, sp, #32
	ret
	.cfi_endproc
                                        ; -- End function
	.private_extern	__ZNKSt3__19allocatorINS_11__tree_nodeINS_12__value_typeIiiEEPvEEE8max_sizeB8ne180100Ev ; -- Begin function _ZNKSt3__19allocatorINS_11__tree_nodeINS_12__value_typeIiiEEPvEEE8max_sizeB8ne180100Ev
	.globl	__ZNKSt3__19allocatorINS_11__tree_nodeINS_12__value_typeIiiEEPvEEE8max_sizeB8ne180100Ev
	.weak_definition	__ZNKSt3__19allocatorINS_11__tree_nodeINS_12__value_typeIiiEEPvEEE8max_sizeB8ne180100Ev
	.p2align	2
__ZNKSt3__19allocatorINS_11__tree_nodeINS_12__value_typeIiiEEPvEEE8max_sizeB8ne180100Ev: ; @_ZNKSt3__19allocatorINS_11__tree_nodeINS_12__value_typeIiiEEPvEEE8max_sizeB8ne180100Ev
	.cfi_startproc
; %bb.0:
	sub	sp, sp, #16
	.cfi_def_cfa_offset 16
	str	x0, [sp, #8]
	mov	x0, #7378697629483820646        ; =0x6666666666666666
	movk	x0, #1638, lsl #48
	add	sp, sp, #16
	ret
	.cfi_endproc
                                        ; -- End function
	.private_extern	__ZNSt3__121__libcpp_operator_newB8ne180100IJmEEEPvDpT_ ; -- Begin function _ZNSt3__121__libcpp_operator_newB8ne180100IJmEEEPvDpT_
	.globl	__ZNSt3__121__libcpp_operator_newB8ne180100IJmEEEPvDpT_
	.weak_definition	__ZNSt3__121__libcpp_operator_newB8ne180100IJmEEEPvDpT_
	.p2align	2
__ZNSt3__121__libcpp_operator_newB8ne180100IJmEEEPvDpT_: ; @_ZNSt3__121__libcpp_operator_newB8ne180100IJmEEEPvDpT_
	.cfi_startproc
; %bb.0:
	sub	sp, sp, #32
	stp	x29, x30, [sp, #16]             ; 16-byte Folded Spill
	add	x29, sp, #16
	.cfi_def_cfa w29, 16
	.cfi_offset w30, -8
	.cfi_offset w29, -16
	str	x0, [sp, #8]
	ldr	x0, [sp, #8]
	bl	__Znwm
	ldp	x29, x30, [sp, #16]             ; 16-byte Folded Reload
	add	sp, sp, #32
	ret
	.cfi_endproc
                                        ; -- End function
	.private_extern	__ZNSt3__121__map_node_destructorINS_9allocatorINS_11__tree_nodeINS_12__value_typeIiiEEPvEEEEEC2B8ne180100ERS7_ ; -- Begin function _ZNSt3__121__map_node_destructorINS_9allocatorINS_11__tree_nodeINS_12__value_typeIiiEEPvEEEEEC2B8ne180100ERS7_
	.globl	__ZNSt3__121__map_node_destructorINS_9allocatorINS_11__tree_nodeINS_12__value_typeIiiEEPvEEEEEC2B8ne180100ERS7_
	.weak_def_can_be_hidden	__ZNSt3__121__map_node_destructorINS_9allocatorINS_11__tree_nodeINS_12__value_typeIiiEEPvEEEEEC2B8ne180100ERS7_
	.p2align	2
__ZNSt3__121__map_node_destructorINS_9allocatorINS_11__tree_nodeINS_12__value_typeIiiEEPvEEEEEC2B8ne180100ERS7_: ; @_ZNSt3__121__map_node_destructorINS_9allocatorINS_11__tree_nodeINS_12__value_typeIiiEEPvEEEEEC2B8ne180100ERS7_
	.cfi_startproc
; %bb.0:
	sub	sp, sp, #16
	.cfi_def_cfa_offset 16
	str	x0, [sp, #8]
	str	x1, [sp]
	ldr	x0, [sp, #8]
	ldr	x8, [sp]
	str	x8, [x0]
	strb	wzr, [x0, #8]
	strb	wzr, [x0, #9]
	add	sp, sp, #16
	ret
	.cfi_endproc
                                        ; -- End function
	.globl	__ZNSt3__110unique_ptrINS_11__tree_nodeINS_12__value_typeIiiEEPvEENS_21__map_node_destructorINS_9allocatorIS5_EEEEEC2B8ne180100ILb1EvEEPS5_NS_16__dependent_typeINS_27__unique_ptr_deleter_sfinaeIS9_EEXT_EE20__good_rval_ref_typeE ; -- Begin function _ZNSt3__110unique_ptrINS_11__tree_nodeINS_12__value_typeIiiEEPvEENS_21__map_node_destructorINS_9allocatorIS5_EEEEEC2B8ne180100ILb1EvEEPS5_NS_16__dependent_typeINS_27__unique_ptr_deleter_sfinaeIS9_EEXT_EE20__good_rval_ref_typeE
	.weak_def_can_be_hidden	__ZNSt3__110unique_ptrINS_11__tree_nodeINS_12__value_typeIiiEEPvEENS_21__map_node_destructorINS_9allocatorIS5_EEEEEC2B8ne180100ILb1EvEEPS5_NS_16__dependent_typeINS_27__unique_ptr_deleter_sfinaeIS9_EEXT_EE20__good_rval_ref_typeE
	.p2align	2
__ZNSt3__110unique_ptrINS_11__tree_nodeINS_12__value_typeIiiEEPvEENS_21__map_node_destructorINS_9allocatorIS5_EEEEEC2B8ne180100ILb1EvEEPS5_NS_16__dependent_typeINS_27__unique_ptr_deleter_sfinaeIS9_EEXT_EE20__good_rval_ref_typeE: ; @_ZNSt3__110unique_ptrINS_11__tree_nodeINS_12__value_typeIiiEEPvEENS_21__map_node_destructorINS_9allocatorIS5_EEEEEC2B8ne180100ILb1EvEEPS5_NS_16__dependent_typeINS_27__unique_ptr_deleter_sfinaeIS9_EEXT_EE20__good_rval_ref_typeE
Lfunc_begin4:
	.cfi_startproc
	.cfi_personality 155, ___gxx_personality_v0
	.cfi_lsda 16, Lexception4
; %bb.0:
	sub	sp, sp, #64
	stp	x29, x30, [sp, #48]             ; 16-byte Folded Spill
	add	x29, sp, #48
	.cfi_def_cfa w29, 16
	.cfi_offset w30, -8
	.cfi_offset w29, -16
	mov	x8, x1
	stur	x0, [x29, #-8]
	sub	x1, x29, #16
	stur	x8, [x29, #-16]
	str	x2, [sp, #24]
	ldur	x0, [x29, #-8]
	str	x0, [sp]                        ; 8-byte Folded Spill
	ldr	x2, [sp, #24]
Ltmp39:
	bl	__ZNSt3__117__compressed_pairIPNS_11__tree_nodeINS_12__value_typeIiiEEPvEENS_21__map_node_destructorINS_9allocatorIS5_EEEEEC1B8ne180100IRS6_SA_EEOT_OT0_
Ltmp40:
	b	LBB76_1
LBB76_1:
	ldr	x0, [sp]                        ; 8-byte Folded Reload
	ldp	x29, x30, [sp, #48]             ; 16-byte Folded Reload
	add	sp, sp, #64
	ret
LBB76_2:
Ltmp41:
	str	x0, [sp, #16]
	mov	x8, x1
	str	w8, [sp, #12]
	b	LBB76_3
LBB76_3:
	ldr	x0, [sp, #16]
	bl	___cxa_call_unexpected
Lfunc_end4:
	.cfi_endproc
	.section	__TEXT,__gcc_except_tab
	.p2align	2, 0x0
GCC_except_table76:
Lexception4:
	.byte	255                             ; @LPStart Encoding = omit
	.byte	155                             ; @TType Encoding = indirect pcrel sdata4
	.uleb128 Lttbase4-Lttbaseref4
Lttbaseref4:
	.byte	1                               ; Call site Encoding = uleb128
	.uleb128 Lcst_end4-Lcst_begin4
Lcst_begin4:
	.uleb128 Ltmp39-Lfunc_begin4            ; >> Call Site 1 <<
	.uleb128 Ltmp40-Ltmp39                  ;   Call between Ltmp39 and Ltmp40
	.uleb128 Ltmp41-Lfunc_begin4            ;     jumps to Ltmp41
	.byte	1                               ;   On action: 1
	.uleb128 Ltmp40-Lfunc_begin4            ; >> Call Site 2 <<
	.uleb128 Lfunc_end4-Ltmp40              ;   Call between Ltmp40 and Lfunc_end4
	.byte	0                               ;     has no landing pad
	.byte	0                               ;   On action: cleanup
Lcst_end4:
	.byte	127                             ; >> Action Record 1 <<
                                        ;   Filter TypeInfo -1
	.byte	0                               ;   No further actions
	.p2align	2, 0x0
Lttbase4:
                                        ; >> Filter TypeInfos <<
	.byte	0
	.p2align	2, 0x0
                                        ; -- End function
	.section	__TEXT,__text,regular,pure_instructions
	.globl	__ZNSt3__117__compressed_pairIPNS_11__tree_nodeINS_12__value_typeIiiEEPvEENS_21__map_node_destructorINS_9allocatorIS5_EEEEEC1B8ne180100IRS6_SA_EEOT_OT0_ ; -- Begin function _ZNSt3__117__compressed_pairIPNS_11__tree_nodeINS_12__value_typeIiiEEPvEENS_21__map_node_destructorINS_9allocatorIS5_EEEEEC1B8ne180100IRS6_SA_EEOT_OT0_
	.weak_def_can_be_hidden	__ZNSt3__117__compressed_pairIPNS_11__tree_nodeINS_12__value_typeIiiEEPvEENS_21__map_node_destructorINS_9allocatorIS5_EEEEEC1B8ne180100IRS6_SA_EEOT_OT0_
	.p2align	2
__ZNSt3__117__compressed_pairIPNS_11__tree_nodeINS_12__value_typeIiiEEPvEENS_21__map_node_destructorINS_9allocatorIS5_EEEEEC1B8ne180100IRS6_SA_EEOT_OT0_: ; @_ZNSt3__117__compressed_pairIPNS_11__tree_nodeINS_12__value_typeIiiEEPvEENS_21__map_node_destructorINS_9allocatorIS5_EEEEEC1B8ne180100IRS6_SA_EEOT_OT0_
	.cfi_startproc
; %bb.0:
	sub	sp, sp, #48
	stp	x29, x30, [sp, #32]             ; 16-byte Folded Spill
	add	x29, sp, #32
	.cfi_def_cfa w29, 16
	.cfi_offset w30, -8
	.cfi_offset w29, -16
	stur	x0, [x29, #-8]
	str	x1, [sp, #16]
	str	x2, [sp, #8]
	ldur	x0, [x29, #-8]
	str	x0, [sp]                        ; 8-byte Folded Spill
	ldr	x1, [sp, #16]
	ldr	x2, [sp, #8]
	bl	__ZNSt3__117__compressed_pairIPNS_11__tree_nodeINS_12__value_typeIiiEEPvEENS_21__map_node_destructorINS_9allocatorIS5_EEEEEC2B8ne180100IRS6_SA_EEOT_OT0_
	ldr	x0, [sp]                        ; 8-byte Folded Reload
	ldp	x29, x30, [sp, #32]             ; 16-byte Folded Reload
	add	sp, sp, #48
	ret
	.cfi_endproc
                                        ; -- End function
	.globl	__ZNSt3__117__compressed_pairIPNS_11__tree_nodeINS_12__value_typeIiiEEPvEENS_21__map_node_destructorINS_9allocatorIS5_EEEEEC2B8ne180100IRS6_SA_EEOT_OT0_ ; -- Begin function _ZNSt3__117__compressed_pairIPNS_11__tree_nodeINS_12__value_typeIiiEEPvEENS_21__map_node_destructorINS_9allocatorIS5_EEEEEC2B8ne180100IRS6_SA_EEOT_OT0_
	.weak_def_can_be_hidden	__ZNSt3__117__compressed_pairIPNS_11__tree_nodeINS_12__value_typeIiiEEPvEENS_21__map_node_destructorINS_9allocatorIS5_EEEEEC2B8ne180100IRS6_SA_EEOT_OT0_
	.p2align	2
__ZNSt3__117__compressed_pairIPNS_11__tree_nodeINS_12__value_typeIiiEEPvEENS_21__map_node_destructorINS_9allocatorIS5_EEEEEC2B8ne180100IRS6_SA_EEOT_OT0_: ; @_ZNSt3__117__compressed_pairIPNS_11__tree_nodeINS_12__value_typeIiiEEPvEENS_21__map_node_destructorINS_9allocatorIS5_EEEEEC2B8ne180100IRS6_SA_EEOT_OT0_
	.cfi_startproc
; %bb.0:
	sub	sp, sp, #48
	stp	x29, x30, [sp, #32]             ; 16-byte Folded Spill
	add	x29, sp, #32
	.cfi_def_cfa w29, 16
	.cfi_offset w30, -8
	.cfi_offset w29, -16
	stur	x0, [x29, #-8]
	str	x1, [sp, #16]
	str	x2, [sp, #8]
	ldur	x0, [x29, #-8]
	str	x0, [sp]                        ; 8-byte Folded Spill
	ldr	x1, [sp, #16]
	bl	__ZNSt3__122__compressed_pair_elemIPNS_11__tree_nodeINS_12__value_typeIiiEEPvEELi0ELb0EEC2B8ne180100IRS6_vEEOT_
	ldr	x8, [sp]                        ; 8-byte Folded Reload
	ldr	x1, [sp, #8]
	add	x0, x8, #8
	bl	__ZNSt3__122__compressed_pair_elemINS_21__map_node_destructorINS_9allocatorINS_11__tree_nodeINS_12__value_typeIiiEEPvEEEEEELi1ELb0EEC2B8ne180100IS9_vEEOT_
	ldr	x0, [sp]                        ; 8-byte Folded Reload
	ldp	x29, x30, [sp, #32]             ; 16-byte Folded Reload
	add	sp, sp, #48
	ret
	.cfi_endproc
                                        ; -- End function
	.globl	__ZNSt3__122__compressed_pair_elemIPNS_11__tree_nodeINS_12__value_typeIiiEEPvEELi0ELb0EEC2B8ne180100IRS6_vEEOT_ ; -- Begin function _ZNSt3__122__compressed_pair_elemIPNS_11__tree_nodeINS_12__value_typeIiiEEPvEELi0ELb0EEC2B8ne180100IRS6_vEEOT_
	.weak_def_can_be_hidden	__ZNSt3__122__compressed_pair_elemIPNS_11__tree_nodeINS_12__value_typeIiiEEPvEELi0ELb0EEC2B8ne180100IRS6_vEEOT_
	.p2align	2
__ZNSt3__122__compressed_pair_elemIPNS_11__tree_nodeINS_12__value_typeIiiEEPvEELi0ELb0EEC2B8ne180100IRS6_vEEOT_: ; @_ZNSt3__122__compressed_pair_elemIPNS_11__tree_nodeINS_12__value_typeIiiEEPvEELi0ELb0EEC2B8ne180100IRS6_vEEOT_
	.cfi_startproc
; %bb.0:
	sub	sp, sp, #16
	.cfi_def_cfa_offset 16
	str	x0, [sp, #8]
	str	x1, [sp]
	ldr	x0, [sp, #8]
	ldr	x8, [sp]
	ldr	x8, [x8]
	str	x8, [x0]
	add	sp, sp, #16
	ret
	.cfi_endproc
                                        ; -- End function
	.globl	__ZNSt3__122__compressed_pair_elemINS_21__map_node_destructorINS_9allocatorINS_11__tree_nodeINS_12__value_typeIiiEEPvEEEEEELi1ELb0EEC2B8ne180100IS9_vEEOT_ ; -- Begin function _ZNSt3__122__compressed_pair_elemINS_21__map_node_destructorINS_9allocatorINS_11__tree_nodeINS_12__value_typeIiiEEPvEEEEEELi1ELb0EEC2B8ne180100IS9_vEEOT_
	.weak_def_can_be_hidden	__ZNSt3__122__compressed_pair_elemINS_21__map_node_destructorINS_9allocatorINS_11__tree_nodeINS_12__value_typeIiiEEPvEEEEEELi1ELb0EEC2B8ne180100IS9_vEEOT_
	.p2align	2
__ZNSt3__122__compressed_pair_elemINS_21__map_node_destructorINS_9allocatorINS_11__tree_nodeINS_12__value_typeIiiEEPvEEEEEELi1ELb0EEC2B8ne180100IS9_vEEOT_: ; @_ZNSt3__122__compressed_pair_elemINS_21__map_node_destructorINS_9allocatorINS_11__tree_nodeINS_12__value_typeIiiEEPvEEEEEELi1ELb0EEC2B8ne180100IS9_vEEOT_
	.cfi_startproc
; %bb.0:
	sub	sp, sp, #16
	.cfi_def_cfa_offset 16
	str	x0, [sp, #8]
	str	x1, [sp]
	ldr	x0, [sp, #8]
	ldr	x8, [sp]
	ldr	q0, [x8]
	str	q0, [x0]
	add	sp, sp, #16
	ret
	.cfi_endproc
                                        ; -- End function
	.globl	__ZNSt3__19allocatorINS_11__tree_nodeINS_12__value_typeIiiEEPvEEE9constructB8ne180100IKiJRS8_EEEvPT_DpOT0_ ; -- Begin function _ZNSt3__19allocatorINS_11__tree_nodeINS_12__value_typeIiiEEPvEEE9constructB8ne180100IKiJRS8_EEEvPT_DpOT0_
	.weak_definition	__ZNSt3__19allocatorINS_11__tree_nodeINS_12__value_typeIiiEEPvEEE9constructB8ne180100IKiJRS8_EEEvPT_DpOT0_
	.p2align	2
__ZNSt3__19allocatorINS_11__tree_nodeINS_12__value_typeIiiEEPvEEE9constructB8ne180100IKiJRS8_EEEvPT_DpOT0_: ; @_ZNSt3__19allocatorINS_11__tree_nodeINS_12__value_typeIiiEEPvEEE9constructB8ne180100IKiJRS8_EEEvPT_DpOT0_
	.cfi_startproc
; %bb.0:
	sub	sp, sp, #32
	.cfi_def_cfa_offset 32
	str	x0, [sp, #24]
	str	x1, [sp, #16]
	str	x2, [sp, #8]
	ldr	x9, [sp, #16]
	ldr	x8, [sp, #8]
	ldr	w8, [x8]
	str	w8, [x9]
	add	sp, sp, #32
	ret
	.cfi_endproc
                                        ; -- End function
	.private_extern	__ZNKSt3__117__compressed_pairIPNS_11__tree_nodeINS_12__value_typeIiiEEPvEENS_21__map_node_destructorINS_9allocatorIS5_EEEEE5firstB8ne180100Ev ; -- Begin function _ZNKSt3__117__compressed_pairIPNS_11__tree_nodeINS_12__value_typeIiiEEPvEENS_21__map_node_destructorINS_9allocatorIS5_EEEEE5firstB8ne180100Ev
	.globl	__ZNKSt3__117__compressed_pairIPNS_11__tree_nodeINS_12__value_typeIiiEEPvEENS_21__map_node_destructorINS_9allocatorIS5_EEEEE5firstB8ne180100Ev
	.weak_definition	__ZNKSt3__117__compressed_pairIPNS_11__tree_nodeINS_12__value_typeIiiEEPvEENS_21__map_node_destructorINS_9allocatorIS5_EEEEE5firstB8ne180100Ev
	.p2align	2
__ZNKSt3__117__compressed_pairIPNS_11__tree_nodeINS_12__value_typeIiiEEPvEENS_21__map_node_destructorINS_9allocatorIS5_EEEEE5firstB8ne180100Ev: ; @_ZNKSt3__117__compressed_pairIPNS_11__tree_nodeINS_12__value_typeIiiEEPvEENS_21__map_node_destructorINS_9allocatorIS5_EEEEE5firstB8ne180100Ev
	.cfi_startproc
; %bb.0:
	sub	sp, sp, #32
	stp	x29, x30, [sp, #16]             ; 16-byte Folded Spill
	add	x29, sp, #16
	.cfi_def_cfa w29, 16
	.cfi_offset w30, -8
	.cfi_offset w29, -16
	str	x0, [sp, #8]
	ldr	x0, [sp, #8]
	bl	__ZNKSt3__122__compressed_pair_elemIPNS_11__tree_nodeINS_12__value_typeIiiEEPvEELi0ELb0EE5__getB8ne180100Ev
	ldp	x29, x30, [sp, #16]             ; 16-byte Folded Reload
	add	sp, sp, #32
	ret
	.cfi_endproc
                                        ; -- End function
	.private_extern	__ZNKSt3__122__compressed_pair_elemIPNS_11__tree_nodeINS_12__value_typeIiiEEPvEELi0ELb0EE5__getB8ne180100Ev ; -- Begin function _ZNKSt3__122__compressed_pair_elemIPNS_11__tree_nodeINS_12__value_typeIiiEEPvEELi0ELb0EE5__getB8ne180100Ev
	.globl	__ZNKSt3__122__compressed_pair_elemIPNS_11__tree_nodeINS_12__value_typeIiiEEPvEELi0ELb0EE5__getB8ne180100Ev
	.weak_definition	__ZNKSt3__122__compressed_pair_elemIPNS_11__tree_nodeINS_12__value_typeIiiEEPvEELi0ELb0EE5__getB8ne180100Ev
	.p2align	2
__ZNKSt3__122__compressed_pair_elemIPNS_11__tree_nodeINS_12__value_typeIiiEEPvEELi0ELb0EE5__getB8ne180100Ev: ; @_ZNKSt3__122__compressed_pair_elemIPNS_11__tree_nodeINS_12__value_typeIiiEEPvEELi0ELb0EE5__getB8ne180100Ev
	.cfi_startproc
; %bb.0:
	sub	sp, sp, #16
	.cfi_def_cfa_offset 16
	str	x0, [sp, #8]
	ldr	x0, [sp, #8]
	add	sp, sp, #16
	ret
	.cfi_endproc
                                        ; -- End function
	.private_extern	__ZNSt3__117__compressed_pairIPNS_11__tree_nodeINS_12__value_typeIiiEEPvEENS_21__map_node_destructorINS_9allocatorIS5_EEEEE6secondB8ne180100Ev ; -- Begin function _ZNSt3__117__compressed_pairIPNS_11__tree_nodeINS_12__value_typeIiiEEPvEENS_21__map_node_destructorINS_9allocatorIS5_EEEEE6secondB8ne180100Ev
	.globl	__ZNSt3__117__compressed_pairIPNS_11__tree_nodeINS_12__value_typeIiiEEPvEENS_21__map_node_destructorINS_9allocatorIS5_EEEEE6secondB8ne180100Ev
	.weak_definition	__ZNSt3__117__compressed_pairIPNS_11__tree_nodeINS_12__value_typeIiiEEPvEENS_21__map_node_destructorINS_9allocatorIS5_EEEEE6secondB8ne180100Ev
	.p2align	2
__ZNSt3__117__compressed_pairIPNS_11__tree_nodeINS_12__value_typeIiiEEPvEENS_21__map_node_destructorINS_9allocatorIS5_EEEEE6secondB8ne180100Ev: ; @_ZNSt3__117__compressed_pairIPNS_11__tree_nodeINS_12__value_typeIiiEEPvEENS_21__map_node_destructorINS_9allocatorIS5_EEEEE6secondB8ne180100Ev
	.cfi_startproc
; %bb.0:
	sub	sp, sp, #32
	stp	x29, x30, [sp, #16]             ; 16-byte Folded Spill
	add	x29, sp, #16
	.cfi_def_cfa w29, 16
	.cfi_offset w30, -8
	.cfi_offset w29, -16
	str	x0, [sp, #8]
	ldr	x8, [sp, #8]
	add	x0, x8, #8
	bl	__ZNSt3__122__compressed_pair_elemINS_21__map_node_destructorINS_9allocatorINS_11__tree_nodeINS_12__value_typeIiiEEPvEEEEEELi1ELb0EE5__getB8ne180100Ev
	ldp	x29, x30, [sp, #16]             ; 16-byte Folded Reload
	add	sp, sp, #32
	ret
	.cfi_endproc
                                        ; -- End function
	.private_extern	__ZNSt3__122__compressed_pair_elemINS_21__map_node_destructorINS_9allocatorINS_11__tree_nodeINS_12__value_typeIiiEEPvEEEEEELi1ELb0EE5__getB8ne180100Ev ; -- Begin function _ZNSt3__122__compressed_pair_elemINS_21__map_node_destructorINS_9allocatorINS_11__tree_nodeINS_12__value_typeIiiEEPvEEEEEELi1ELb0EE5__getB8ne180100Ev
	.globl	__ZNSt3__122__compressed_pair_elemINS_21__map_node_destructorINS_9allocatorINS_11__tree_nodeINS_12__value_typeIiiEEPvEEEEEELi1ELb0EE5__getB8ne180100Ev
	.weak_definition	__ZNSt3__122__compressed_pair_elemINS_21__map_node_destructorINS_9allocatorINS_11__tree_nodeINS_12__value_typeIiiEEPvEEEEEELi1ELb0EE5__getB8ne180100Ev
	.p2align	2
__ZNSt3__122__compressed_pair_elemINS_21__map_node_destructorINS_9allocatorINS_11__tree_nodeINS_12__value_typeIiiEEPvEEEEEELi1ELb0EE5__getB8ne180100Ev: ; @_ZNSt3__122__compressed_pair_elemINS_21__map_node_destructorINS_9allocatorINS_11__tree_nodeINS_12__value_typeIiiEEPvEEEEEELi1ELb0EE5__getB8ne180100Ev
	.cfi_startproc
; %bb.0:
	sub	sp, sp, #16
	.cfi_def_cfa_offset 16
	str	x0, [sp, #8]
	ldr	x0, [sp, #8]
	add	sp, sp, #16
	ret
	.cfi_endproc
                                        ; -- End function
	.globl	__ZNSt3__19allocatorINS_11__tree_nodeINS_12__value_typeIiiEEPvEEE9constructB8ne180100IiJEEEvPT_DpOT0_ ; -- Begin function _ZNSt3__19allocatorINS_11__tree_nodeINS_12__value_typeIiiEEPvEEE9constructB8ne180100IiJEEEvPT_DpOT0_
	.weak_definition	__ZNSt3__19allocatorINS_11__tree_nodeINS_12__value_typeIiiEEPvEEE9constructB8ne180100IiJEEEvPT_DpOT0_
	.p2align	2
__ZNSt3__19allocatorINS_11__tree_nodeINS_12__value_typeIiiEEPvEEE9constructB8ne180100IiJEEEvPT_DpOT0_: ; @_ZNSt3__19allocatorINS_11__tree_nodeINS_12__value_typeIiiEEPvEEE9constructB8ne180100IiJEEEvPT_DpOT0_
	.cfi_startproc
; %bb.0:
	sub	sp, sp, #16
	.cfi_def_cfa_offset 16
	str	x0, [sp, #8]
	str	x1, [sp]
	ldr	x8, [sp]
	str	wzr, [x8]
	add	sp, sp, #16
	ret
	.cfi_endproc
                                        ; -- End function
	.private_extern	__ZNSt3__127__tree_balance_after_insertB8ne180100IPNS_16__tree_node_baseIPvEEEEvT_S5_ ; -- Begin function _ZNSt3__127__tree_balance_after_insertB8ne180100IPNS_16__tree_node_baseIPvEEEEvT_S5_
	.globl	__ZNSt3__127__tree_balance_after_insertB8ne180100IPNS_16__tree_node_baseIPvEEEEvT_S5_
	.weak_definition	__ZNSt3__127__tree_balance_after_insertB8ne180100IPNS_16__tree_node_baseIPvEEEEvT_S5_
	.p2align	2
__ZNSt3__127__tree_balance_after_insertB8ne180100IPNS_16__tree_node_baseIPvEEEEvT_S5_: ; @_ZNSt3__127__tree_balance_after_insertB8ne180100IPNS_16__tree_node_baseIPvEEEEvT_S5_
Lfunc_begin5:
	.cfi_startproc
	.cfi_personality 155, ___gxx_personality_v0
	.cfi_lsda 16, Lexception5
; %bb.0:
	sub	sp, sp, #192
	stp	x29, x30, [sp, #176]            ; 16-byte Folded Spill
	add	x29, sp, #176
	.cfi_def_cfa w29, 16
	.cfi_offset w30, -8
	.cfi_offset w29, -16
	stur	x0, [x29, #-8]
	stur	x1, [x29, #-16]
	ldur	x8, [x29, #-16]
	ldur	x9, [x29, #-8]
	subs	x8, x8, x9
	cset	w8, eq
	ldur	x9, [x29, #-16]
	and	w8, w8, #0x1
	strb	w8, [x9, #24]
	b	LBB87_1
LBB87_1:                                ; =>This Inner Loop Header: Depth=1
	ldur	x8, [x29, #-16]
	ldur	x9, [x29, #-8]
	subs	x8, x8, x9
	cset	w8, eq
	mov	w9, #0                          ; =0x0
	stur	w9, [x29, #-52]                 ; 4-byte Folded Spill
	tbnz	w8, #0, LBB87_4
	b	LBB87_2
LBB87_2:                                ;   in Loop: Header=BB87_1 Depth=1
	ldur	x0, [x29, #-16]
Ltmp48:
	bl	__ZNKSt3__116__tree_node_baseIPvE15__parent_unsafeB8ne180100Ev
	stur	x0, [x29, #-64]                 ; 8-byte Folded Spill
Ltmp49:
	b	LBB87_3
LBB87_3:                                ;   in Loop: Header=BB87_1 Depth=1
	ldur	x8, [x29, #-64]                 ; 8-byte Folded Reload
	ldrb	w8, [x8, #24]
	eor	w8, w8, #0x1
	stur	w8, [x29, #-52]                 ; 4-byte Folded Spill
	b	LBB87_4
LBB87_4:                                ;   in Loop: Header=BB87_1 Depth=1
	ldur	w8, [x29, #-52]                 ; 4-byte Folded Reload
	tbz	w8, #0, LBB87_37
	b	LBB87_5
LBB87_5:                                ;   in Loop: Header=BB87_1 Depth=1
	ldur	x0, [x29, #-16]
Ltmp50:
	bl	__ZNKSt3__116__tree_node_baseIPvE15__parent_unsafeB8ne180100Ev
	stur	x0, [x29, #-72]                 ; 8-byte Folded Spill
Ltmp51:
	b	LBB87_6
LBB87_6:                                ;   in Loop: Header=BB87_1 Depth=1
	ldur	x0, [x29, #-72]                 ; 8-byte Folded Reload
	bl	__ZNSt3__120__tree_is_left_childB8ne180100IPNS_16__tree_node_baseIPvEEEEbT_
	tbz	w0, #0, LBB87_23
	b	LBB87_7
LBB87_7:                                ;   in Loop: Header=BB87_1 Depth=1
	ldur	x0, [x29, #-16]
Ltmp64:
	bl	__ZNKSt3__116__tree_node_baseIPvE15__parent_unsafeB8ne180100Ev
	stur	x0, [x29, #-80]                 ; 8-byte Folded Spill
Ltmp65:
	b	LBB87_8
LBB87_8:                                ;   in Loop: Header=BB87_1 Depth=1
Ltmp66:
	ldur	x0, [x29, #-80]                 ; 8-byte Folded Reload
	bl	__ZNKSt3__116__tree_node_baseIPvE15__parent_unsafeB8ne180100Ev
	str	x0, [sp, #88]                   ; 8-byte Folded Spill
Ltmp67:
	b	LBB87_9
LBB87_9:                                ;   in Loop: Header=BB87_1 Depth=1
	ldr	x8, [sp, #88]                   ; 8-byte Folded Reload
	ldr	x8, [x8, #8]
	stur	x8, [x29, #-40]
	ldur	x8, [x29, #-40]
	subs	x8, x8, #0
	cset	w8, eq
	tbnz	w8, #0, LBB87_16
	b	LBB87_10
LBB87_10:                               ;   in Loop: Header=BB87_1 Depth=1
	ldur	x8, [x29, #-40]
	ldrb	w8, [x8, #24]
	tbnz	w8, #0, LBB87_16
	b	LBB87_11
LBB87_11:                               ;   in Loop: Header=BB87_1 Depth=1
	ldur	x0, [x29, #-16]
Ltmp68:
	bl	__ZNKSt3__116__tree_node_baseIPvE15__parent_unsafeB8ne180100Ev
	str	x0, [sp, #80]                   ; 8-byte Folded Spill
Ltmp69:
	b	LBB87_12
LBB87_12:                               ;   in Loop: Header=BB87_1 Depth=1
	ldr	x8, [sp, #80]                   ; 8-byte Folded Reload
	stur	x8, [x29, #-16]
	ldur	x9, [x29, #-16]
	mov	w8, #1                          ; =0x1
	strb	w8, [x9, #24]
	ldur	x0, [x29, #-16]
Ltmp70:
	bl	__ZNKSt3__116__tree_node_baseIPvE15__parent_unsafeB8ne180100Ev
	str	x0, [sp, #72]                   ; 8-byte Folded Spill
Ltmp71:
	b	LBB87_13
LBB87_13:                               ;   in Loop: Header=BB87_1 Depth=1
	ldr	x8, [sp, #72]                   ; 8-byte Folded Reload
	stur	x8, [x29, #-16]
	ldur	x8, [x29, #-16]
	ldur	x9, [x29, #-8]
	subs	x8, x8, x9
	cset	w9, eq
	ldur	x10, [x29, #-16]
	mov	w8, #1                          ; =0x1
	and	w9, w9, #0x1
	strb	w9, [x10, #24]
	ldur	x9, [x29, #-40]
	strb	w8, [x9, #24]
	b	LBB87_22
LBB87_14:
Ltmp78:
	stur	x0, [x29, #-24]
	mov	x8, x1
	stur	w8, [x29, #-28]
	b	LBB87_15
LBB87_15:
	ldur	x0, [x29, #-24]
	bl	___cxa_call_unexpected
LBB87_16:
	ldur	x0, [x29, #-16]
	bl	__ZNSt3__120__tree_is_left_childB8ne180100IPNS_16__tree_node_baseIPvEEEEbT_
	tbnz	w0, #0, LBB87_19
	b	LBB87_17
LBB87_17:
	ldur	x0, [x29, #-16]
Ltmp72:
	bl	__ZNKSt3__116__tree_node_baseIPvE15__parent_unsafeB8ne180100Ev
	str	x0, [sp, #64]                   ; 8-byte Folded Spill
Ltmp73:
	b	LBB87_18
LBB87_18:
	ldr	x8, [sp, #64]                   ; 8-byte Folded Reload
	stur	x8, [x29, #-16]
	ldur	x0, [x29, #-16]
	bl	__ZNSt3__118__tree_left_rotateB8ne180100IPNS_16__tree_node_baseIPvEEEEvT_
	b	LBB87_19
LBB87_19:
	ldur	x0, [x29, #-16]
Ltmp74:
	bl	__ZNKSt3__116__tree_node_baseIPvE15__parent_unsafeB8ne180100Ev
	str	x0, [sp, #56]                   ; 8-byte Folded Spill
Ltmp75:
	b	LBB87_20
LBB87_20:
	ldr	x8, [sp, #56]                   ; 8-byte Folded Reload
	stur	x8, [x29, #-16]
	ldur	x9, [x29, #-16]
	mov	w8, #1                          ; =0x1
	strb	w8, [x9, #24]
	ldur	x0, [x29, #-16]
Ltmp76:
	bl	__ZNKSt3__116__tree_node_baseIPvE15__parent_unsafeB8ne180100Ev
	str	x0, [sp, #48]                   ; 8-byte Folded Spill
Ltmp77:
	b	LBB87_21
LBB87_21:
	ldr	x8, [sp, #48]                   ; 8-byte Folded Reload
	stur	x8, [x29, #-16]
	ldur	x8, [x29, #-16]
	strb	wzr, [x8, #24]
	ldur	x0, [x29, #-16]
	bl	__ZNSt3__119__tree_right_rotateB8ne180100IPNS_16__tree_node_baseIPvEEEEvT_
	b	LBB87_37
LBB87_22:                               ;   in Loop: Header=BB87_1 Depth=1
	b	LBB87_36
LBB87_23:                               ;   in Loop: Header=BB87_1 Depth=1
	ldur	x0, [x29, #-16]
Ltmp52:
	bl	__ZNKSt3__116__tree_node_baseIPvE15__parent_unsafeB8ne180100Ev
	str	x0, [sp, #40]                   ; 8-byte Folded Spill
Ltmp53:
	b	LBB87_24
LBB87_24:                               ;   in Loop: Header=BB87_1 Depth=1
	ldr	x8, [sp, #40]                   ; 8-byte Folded Reload
	ldr	x8, [x8, #16]
	ldr	x8, [x8]
	stur	x8, [x29, #-48]
	ldur	x8, [x29, #-48]
	subs	x8, x8, #0
	cset	w8, eq
	tbnz	w8, #0, LBB87_29
	b	LBB87_25
LBB87_25:                               ;   in Loop: Header=BB87_1 Depth=1
	ldur	x8, [x29, #-48]
	ldrb	w8, [x8, #24]
	tbnz	w8, #0, LBB87_29
	b	LBB87_26
LBB87_26:                               ;   in Loop: Header=BB87_1 Depth=1
	ldur	x0, [x29, #-16]
Ltmp54:
	bl	__ZNKSt3__116__tree_node_baseIPvE15__parent_unsafeB8ne180100Ev
	str	x0, [sp, #32]                   ; 8-byte Folded Spill
Ltmp55:
	b	LBB87_27
LBB87_27:                               ;   in Loop: Header=BB87_1 Depth=1
	ldr	x8, [sp, #32]                   ; 8-byte Folded Reload
	stur	x8, [x29, #-16]
	ldur	x9, [x29, #-16]
	mov	w8, #1                          ; =0x1
	strb	w8, [x9, #24]
	ldur	x0, [x29, #-16]
Ltmp56:
	bl	__ZNKSt3__116__tree_node_baseIPvE15__parent_unsafeB8ne180100Ev
	str	x0, [sp, #24]                   ; 8-byte Folded Spill
Ltmp57:
	b	LBB87_28
LBB87_28:                               ;   in Loop: Header=BB87_1 Depth=1
	ldr	x8, [sp, #24]                   ; 8-byte Folded Reload
	stur	x8, [x29, #-16]
	ldur	x8, [x29, #-16]
	ldur	x9, [x29, #-8]
	subs	x8, x8, x9
	cset	w9, eq
	ldur	x10, [x29, #-16]
	mov	w8, #1                          ; =0x1
	and	w9, w9, #0x1
	strb	w9, [x10, #24]
	ldur	x9, [x29, #-48]
	strb	w8, [x9, #24]
	b	LBB87_35
LBB87_29:
	ldur	x0, [x29, #-16]
	bl	__ZNSt3__120__tree_is_left_childB8ne180100IPNS_16__tree_node_baseIPvEEEEbT_
	tbz	w0, #0, LBB87_32
	b	LBB87_30
LBB87_30:
	ldur	x0, [x29, #-16]
Ltmp58:
	bl	__ZNKSt3__116__tree_node_baseIPvE15__parent_unsafeB8ne180100Ev
	str	x0, [sp, #16]                   ; 8-byte Folded Spill
Ltmp59:
	b	LBB87_31
LBB87_31:
	ldr	x8, [sp, #16]                   ; 8-byte Folded Reload
	stur	x8, [x29, #-16]
	ldur	x0, [x29, #-16]
	bl	__ZNSt3__119__tree_right_rotateB8ne180100IPNS_16__tree_node_baseIPvEEEEvT_
	b	LBB87_32
LBB87_32:
	ldur	x0, [x29, #-16]
Ltmp60:
	bl	__ZNKSt3__116__tree_node_baseIPvE15__parent_unsafeB8ne180100Ev
	str	x0, [sp, #8]                    ; 8-byte Folded Spill
Ltmp61:
	b	LBB87_33
LBB87_33:
	ldr	x8, [sp, #8]                    ; 8-byte Folded Reload
	stur	x8, [x29, #-16]
	ldur	x9, [x29, #-16]
	mov	w8, #1                          ; =0x1
	strb	w8, [x9, #24]
	ldur	x0, [x29, #-16]
Ltmp62:
	bl	__ZNKSt3__116__tree_node_baseIPvE15__parent_unsafeB8ne180100Ev
	str	x0, [sp]                        ; 8-byte Folded Spill
Ltmp63:
	b	LBB87_34
LBB87_34:
	ldr	x8, [sp]                        ; 8-byte Folded Reload
	stur	x8, [x29, #-16]
	ldur	x8, [x29, #-16]
	strb	wzr, [x8, #24]
	ldur	x0, [x29, #-16]
	bl	__ZNSt3__118__tree_left_rotateB8ne180100IPNS_16__tree_node_baseIPvEEEEvT_
	b	LBB87_37
LBB87_35:                               ;   in Loop: Header=BB87_1 Depth=1
	b	LBB87_36
LBB87_36:                               ;   in Loop: Header=BB87_1 Depth=1
	b	LBB87_1
LBB87_37:
	ldp	x29, x30, [sp, #176]            ; 16-byte Folded Reload
	add	sp, sp, #192
	ret
Lfunc_end5:
	.cfi_endproc
	.section	__TEXT,__gcc_except_tab
	.p2align	2, 0x0
GCC_except_table87:
Lexception5:
	.byte	255                             ; @LPStart Encoding = omit
	.byte	155                             ; @TType Encoding = indirect pcrel sdata4
	.uleb128 Lttbase5-Lttbaseref5
Lttbaseref5:
	.byte	1                               ; Call site Encoding = uleb128
	.uleb128 Lcst_end5-Lcst_begin5
Lcst_begin5:
	.uleb128 Ltmp48-Lfunc_begin5            ; >> Call Site 1 <<
	.uleb128 Ltmp71-Ltmp48                  ;   Call between Ltmp48 and Ltmp71
	.uleb128 Ltmp78-Lfunc_begin5            ;     jumps to Ltmp78
	.byte	1                               ;   On action: 1
	.uleb128 Ltmp71-Lfunc_begin5            ; >> Call Site 2 <<
	.uleb128 Ltmp72-Ltmp71                  ;   Call between Ltmp71 and Ltmp72
	.byte	0                               ;     has no landing pad
	.byte	0                               ;   On action: cleanup
	.uleb128 Ltmp72-Lfunc_begin5            ; >> Call Site 3 <<
	.uleb128 Ltmp63-Ltmp72                  ;   Call between Ltmp72 and Ltmp63
	.uleb128 Ltmp78-Lfunc_begin5            ;     jumps to Ltmp78
	.byte	1                               ;   On action: 1
Lcst_end5:
	.byte	127                             ; >> Action Record 1 <<
                                        ;   Filter TypeInfo -1
	.byte	0                               ;   No further actions
	.p2align	2, 0x0
Lttbase5:
                                        ; >> Filter TypeInfos <<
	.byte	0
	.p2align	2, 0x0
                                        ; -- End function
	.section	__TEXT,__text,regular,pure_instructions
	.private_extern	__ZNSt3__16__treeINS_12__value_typeIiiEENS_19__map_value_compareIiS2_NS_4lessIiEELb1EEENS_9allocatorIS2_EEE4sizeB8ne180100Ev ; -- Begin function _ZNSt3__16__treeINS_12__value_typeIiiEENS_19__map_value_compareIiS2_NS_4lessIiEELb1EEENS_9allocatorIS2_EEE4sizeB8ne180100Ev
	.globl	__ZNSt3__16__treeINS_12__value_typeIiiEENS_19__map_value_compareIiS2_NS_4lessIiEELb1EEENS_9allocatorIS2_EEE4sizeB8ne180100Ev
	.weak_definition	__ZNSt3__16__treeINS_12__value_typeIiiEENS_19__map_value_compareIiS2_NS_4lessIiEELb1EEENS_9allocatorIS2_EEE4sizeB8ne180100Ev
	.p2align	2
__ZNSt3__16__treeINS_12__value_typeIiiEENS_19__map_value_compareIiS2_NS_4lessIiEELb1EEENS_9allocatorIS2_EEE4sizeB8ne180100Ev: ; @_ZNSt3__16__treeINS_12__value_typeIiiEENS_19__map_value_compareIiS2_NS_4lessIiEELb1EEENS_9allocatorIS2_EEE4sizeB8ne180100Ev
	.cfi_startproc
; %bb.0:
	sub	sp, sp, #32
	stp	x29, x30, [sp, #16]             ; 16-byte Folded Spill
	add	x29, sp, #16
	.cfi_def_cfa w29, 16
	.cfi_offset w30, -8
	.cfi_offset w29, -16
	str	x0, [sp, #8]
	ldr	x8, [sp, #8]
	add	x0, x8, #16
	bl	__ZNSt3__117__compressed_pairImNS_19__map_value_compareIiNS_12__value_typeIiiEENS_4lessIiEELb1EEEE5firstB8ne180100Ev
	ldp	x29, x30, [sp, #16]             ; 16-byte Folded Reload
	add	sp, sp, #32
	ret
	.cfi_endproc
                                        ; -- End function
	.private_extern	__ZNKSt3__116__tree_node_baseIPvE15__parent_unsafeB8ne180100Ev ; -- Begin function _ZNKSt3__116__tree_node_baseIPvE15__parent_unsafeB8ne180100Ev
	.globl	__ZNKSt3__116__tree_node_baseIPvE15__parent_unsafeB8ne180100Ev
	.weak_definition	__ZNKSt3__116__tree_node_baseIPvE15__parent_unsafeB8ne180100Ev
	.p2align	2
__ZNKSt3__116__tree_node_baseIPvE15__parent_unsafeB8ne180100Ev: ; @_ZNKSt3__116__tree_node_baseIPvE15__parent_unsafeB8ne180100Ev
	.cfi_startproc
; %bb.0:
	sub	sp, sp, #16
	.cfi_def_cfa_offset 16
	str	x0, [sp, #8]
	ldr	x8, [sp, #8]
	ldr	x0, [x8, #16]
	add	sp, sp, #16
	ret
	.cfi_endproc
                                        ; -- End function
	.private_extern	__ZNSt3__120__tree_is_left_childB8ne180100IPNS_16__tree_node_baseIPvEEEEbT_ ; -- Begin function _ZNSt3__120__tree_is_left_childB8ne180100IPNS_16__tree_node_baseIPvEEEEbT_
	.globl	__ZNSt3__120__tree_is_left_childB8ne180100IPNS_16__tree_node_baseIPvEEEEbT_
	.weak_definition	__ZNSt3__120__tree_is_left_childB8ne180100IPNS_16__tree_node_baseIPvEEEEbT_
	.p2align	2
__ZNSt3__120__tree_is_left_childB8ne180100IPNS_16__tree_node_baseIPvEEEEbT_: ; @_ZNSt3__120__tree_is_left_childB8ne180100IPNS_16__tree_node_baseIPvEEEEbT_
	.cfi_startproc
; %bb.0:
	sub	sp, sp, #16
	.cfi_def_cfa_offset 16
	str	x0, [sp, #8]
	ldr	x8, [sp, #8]
	ldr	x9, [sp, #8]
	ldr	x9, [x9, #16]
	ldr	x9, [x9]
	subs	x8, x8, x9
	cset	w8, eq
	and	w0, w8, #0x1
	add	sp, sp, #16
	ret
	.cfi_endproc
                                        ; -- End function
	.private_extern	__ZNSt3__118__tree_left_rotateB8ne180100IPNS_16__tree_node_baseIPvEEEEvT_ ; -- Begin function _ZNSt3__118__tree_left_rotateB8ne180100IPNS_16__tree_node_baseIPvEEEEvT_
	.globl	__ZNSt3__118__tree_left_rotateB8ne180100IPNS_16__tree_node_baseIPvEEEEvT_
	.weak_definition	__ZNSt3__118__tree_left_rotateB8ne180100IPNS_16__tree_node_baseIPvEEEEvT_
	.p2align	2
__ZNSt3__118__tree_left_rotateB8ne180100IPNS_16__tree_node_baseIPvEEEEvT_: ; @_ZNSt3__118__tree_left_rotateB8ne180100IPNS_16__tree_node_baseIPvEEEEvT_
Lfunc_begin6:
	.cfi_startproc
	.cfi_personality 155, ___gxx_personality_v0
	.cfi_lsda 16, Lexception6
; %bb.0:
	sub	sp, sp, #64
	stp	x29, x30, [sp, #48]             ; 16-byte Folded Spill
	add	x29, sp, #48
	.cfi_def_cfa w29, 16
	.cfi_offset w30, -8
	.cfi_offset w29, -16
	stur	x0, [x29, #-8]
	ldur	x8, [x29, #-8]
	ldr	x8, [x8, #8]
	stur	x8, [x29, #-16]
	ldur	x8, [x29, #-16]
	ldr	x8, [x8]
	ldur	x9, [x29, #-8]
	str	x8, [x9, #8]
	ldur	x8, [x29, #-8]
	ldr	x8, [x8, #8]
	subs	x8, x8, #0
	cset	w8, eq
	tbnz	w8, #0, LBB91_5
	b	LBB91_1
LBB91_1:
	ldur	x8, [x29, #-8]
	ldr	x0, [x8, #8]
	ldur	x1, [x29, #-8]
Ltmp81:
	bl	__ZNSt3__116__tree_node_baseIPvE12__set_parentB8ne180100EPS2_
Ltmp82:
	b	LBB91_2
LBB91_2:
	b	LBB91_5
LBB91_3:
Ltmp85:
	str	x0, [sp, #24]
	mov	x8, x1
	str	w8, [sp, #20]
	b	LBB91_4
LBB91_4:
	ldr	x0, [sp, #24]
	bl	___cxa_call_unexpected
LBB91_5:
	ldur	x8, [x29, #-8]
	ldr	x8, [x8, #16]
	ldur	x9, [x29, #-16]
	str	x8, [x9, #16]
	ldur	x0, [x29, #-8]
	bl	__ZNSt3__120__tree_is_left_childB8ne180100IPNS_16__tree_node_baseIPvEEEEbT_
	tbz	w0, #0, LBB91_7
	b	LBB91_6
LBB91_6:
	ldur	x8, [x29, #-16]
	ldur	x9, [x29, #-8]
	ldr	x9, [x9, #16]
	str	x8, [x9]
	b	LBB91_8
LBB91_7:
	ldur	x8, [x29, #-16]
	str	x8, [sp, #8]                    ; 8-byte Folded Spill
	ldur	x0, [x29, #-8]
	bl	__ZNKSt3__116__tree_node_baseIPvE15__parent_unsafeB8ne180100Ev
	ldr	x8, [sp, #8]                    ; 8-byte Folded Reload
	str	x8, [x0, #8]
	b	LBB91_8
LBB91_8:
	ldur	x8, [x29, #-8]
	ldur	x9, [x29, #-16]
	str	x8, [x9]
	ldur	x0, [x29, #-8]
	ldur	x1, [x29, #-16]
Ltmp83:
	bl	__ZNSt3__116__tree_node_baseIPvE12__set_parentB8ne180100EPS2_
Ltmp84:
	b	LBB91_9
LBB91_9:
	ldp	x29, x30, [sp, #48]             ; 16-byte Folded Reload
	add	sp, sp, #64
	ret
Lfunc_end6:
	.cfi_endproc
	.section	__TEXT,__gcc_except_tab
	.p2align	2, 0x0
GCC_except_table91:
Lexception6:
	.byte	255                             ; @LPStart Encoding = omit
	.byte	155                             ; @TType Encoding = indirect pcrel sdata4
	.uleb128 Lttbase6-Lttbaseref6
Lttbaseref6:
	.byte	1                               ; Call site Encoding = uleb128
	.uleb128 Lcst_end6-Lcst_begin6
Lcst_begin6:
	.uleb128 Ltmp81-Lfunc_begin6            ; >> Call Site 1 <<
	.uleb128 Ltmp82-Ltmp81                  ;   Call between Ltmp81 and Ltmp82
	.uleb128 Ltmp85-Lfunc_begin6            ;     jumps to Ltmp85
	.byte	1                               ;   On action: 1
	.uleb128 Ltmp82-Lfunc_begin6            ; >> Call Site 2 <<
	.uleb128 Ltmp83-Ltmp82                  ;   Call between Ltmp82 and Ltmp83
	.byte	0                               ;     has no landing pad
	.byte	0                               ;   On action: cleanup
	.uleb128 Ltmp83-Lfunc_begin6            ; >> Call Site 3 <<
	.uleb128 Ltmp84-Ltmp83                  ;   Call between Ltmp83 and Ltmp84
	.uleb128 Ltmp85-Lfunc_begin6            ;     jumps to Ltmp85
	.byte	1                               ;   On action: 1
Lcst_end6:
	.byte	127                             ; >> Action Record 1 <<
                                        ;   Filter TypeInfo -1
	.byte	0                               ;   No further actions
	.p2align	2, 0x0
Lttbase6:
                                        ; >> Filter TypeInfos <<
	.byte	0
	.p2align	2, 0x0
                                        ; -- End function
	.section	__TEXT,__text,regular,pure_instructions
	.private_extern	__ZNSt3__119__tree_right_rotateB8ne180100IPNS_16__tree_node_baseIPvEEEEvT_ ; -- Begin function _ZNSt3__119__tree_right_rotateB8ne180100IPNS_16__tree_node_baseIPvEEEEvT_
	.globl	__ZNSt3__119__tree_right_rotateB8ne180100IPNS_16__tree_node_baseIPvEEEEvT_
	.weak_definition	__ZNSt3__119__tree_right_rotateB8ne180100IPNS_16__tree_node_baseIPvEEEEvT_
	.p2align	2
__ZNSt3__119__tree_right_rotateB8ne180100IPNS_16__tree_node_baseIPvEEEEvT_: ; @_ZNSt3__119__tree_right_rotateB8ne180100IPNS_16__tree_node_baseIPvEEEEvT_
	.cfi_startproc
; %bb.0:
	sub	sp, sp, #48
	stp	x29, x30, [sp, #32]             ; 16-byte Folded Spill
	add	x29, sp, #32
	.cfi_def_cfa w29, 16
	.cfi_offset w30, -8
	.cfi_offset w29, -16
	stur	x0, [x29, #-8]
	ldur	x8, [x29, #-8]
	ldr	x8, [x8]
	str	x8, [sp, #16]
	ldr	x8, [sp, #16]
	ldr	x8, [x8, #8]
	ldur	x9, [x29, #-8]
	str	x8, [x9]
	ldur	x8, [x29, #-8]
	ldr	x8, [x8]
	subs	x8, x8, #0
	cset	w8, eq
	tbnz	w8, #0, LBB92_2
	b	LBB92_1
LBB92_1:
	ldur	x8, [x29, #-8]
	ldr	x0, [x8]
	ldur	x1, [x29, #-8]
	bl	__ZNSt3__116__tree_node_baseIPvE12__set_parentB8ne180100EPS2_
	b	LBB92_2
LBB92_2:
	ldur	x8, [x29, #-8]
	ldr	x8, [x8, #16]
	ldr	x9, [sp, #16]
	str	x8, [x9, #16]
	ldur	x0, [x29, #-8]
	bl	__ZNSt3__120__tree_is_left_childB8ne180100IPNS_16__tree_node_baseIPvEEEEbT_
	tbz	w0, #0, LBB92_4
	b	LBB92_3
LBB92_3:
	ldr	x8, [sp, #16]
	ldur	x9, [x29, #-8]
	ldr	x9, [x9, #16]
	str	x8, [x9]
	b	LBB92_5
LBB92_4:
	ldr	x8, [sp, #16]
	str	x8, [sp, #8]                    ; 8-byte Folded Spill
	ldur	x0, [x29, #-8]
	bl	__ZNKSt3__116__tree_node_baseIPvE15__parent_unsafeB8ne180100Ev
	ldr	x8, [sp, #8]                    ; 8-byte Folded Reload
	str	x8, [x0, #8]
	b	LBB92_5
LBB92_5:
	ldur	x8, [x29, #-8]
	ldr	x9, [sp, #16]
	str	x8, [x9, #8]
	ldur	x0, [x29, #-8]
	ldr	x1, [sp, #16]
	bl	__ZNSt3__116__tree_node_baseIPvE12__set_parentB8ne180100EPS2_
	ldp	x29, x30, [sp, #32]             ; 16-byte Folded Reload
	add	sp, sp, #48
	ret
	.cfi_endproc
                                        ; -- End function
	.private_extern	__ZNSt3__116__tree_node_baseIPvE12__set_parentB8ne180100EPS2_ ; -- Begin function _ZNSt3__116__tree_node_baseIPvE12__set_parentB8ne180100EPS2_
	.globl	__ZNSt3__116__tree_node_baseIPvE12__set_parentB8ne180100EPS2_
	.weak_definition	__ZNSt3__116__tree_node_baseIPvE12__set_parentB8ne180100EPS2_
	.p2align	2
__ZNSt3__116__tree_node_baseIPvE12__set_parentB8ne180100EPS2_: ; @_ZNSt3__116__tree_node_baseIPvE12__set_parentB8ne180100EPS2_
	.cfi_startproc
; %bb.0:
	sub	sp, sp, #16
	.cfi_def_cfa_offset 16
	str	x0, [sp, #8]
	str	x1, [sp]
	ldr	x9, [sp, #8]
	ldr	x8, [sp]
	str	x8, [x9, #16]
	add	sp, sp, #16
	ret
	.cfi_endproc
                                        ; -- End function
	.private_extern	__ZNSt3__117__compressed_pairImNS_19__map_value_compareIiNS_12__value_typeIiiEENS_4lessIiEELb1EEEE5firstB8ne180100Ev ; -- Begin function _ZNSt3__117__compressed_pairImNS_19__map_value_compareIiNS_12__value_typeIiiEENS_4lessIiEELb1EEEE5firstB8ne180100Ev
	.globl	__ZNSt3__117__compressed_pairImNS_19__map_value_compareIiNS_12__value_typeIiiEENS_4lessIiEELb1EEEE5firstB8ne180100Ev
	.weak_definition	__ZNSt3__117__compressed_pairImNS_19__map_value_compareIiNS_12__value_typeIiiEENS_4lessIiEELb1EEEE5firstB8ne180100Ev
	.p2align	2
__ZNSt3__117__compressed_pairImNS_19__map_value_compareIiNS_12__value_typeIiiEENS_4lessIiEELb1EEEE5firstB8ne180100Ev: ; @_ZNSt3__117__compressed_pairImNS_19__map_value_compareIiNS_12__value_typeIiiEENS_4lessIiEELb1EEEE5firstB8ne180100Ev
	.cfi_startproc
; %bb.0:
	sub	sp, sp, #32
	stp	x29, x30, [sp, #16]             ; 16-byte Folded Spill
	add	x29, sp, #16
	.cfi_def_cfa w29, 16
	.cfi_offset w30, -8
	.cfi_offset w29, -16
	str	x0, [sp, #8]
	ldr	x0, [sp, #8]
	bl	__ZNSt3__122__compressed_pair_elemImLi0ELb0EE5__getB8ne180100Ev
	ldp	x29, x30, [sp, #16]             ; 16-byte Folded Reload
	add	sp, sp, #32
	ret
	.cfi_endproc
                                        ; -- End function
	.private_extern	__ZNSt3__122__compressed_pair_elemImLi0ELb0EE5__getB8ne180100Ev ; -- Begin function _ZNSt3__122__compressed_pair_elemImLi0ELb0EE5__getB8ne180100Ev
	.globl	__ZNSt3__122__compressed_pair_elemImLi0ELb0EE5__getB8ne180100Ev
	.weak_definition	__ZNSt3__122__compressed_pair_elemImLi0ELb0EE5__getB8ne180100Ev
	.p2align	2
__ZNSt3__122__compressed_pair_elemImLi0ELb0EE5__getB8ne180100Ev: ; @_ZNSt3__122__compressed_pair_elemImLi0ELb0EE5__getB8ne180100Ev
	.cfi_startproc
; %bb.0:
	sub	sp, sp, #16
	.cfi_def_cfa_offset 16
	str	x0, [sp, #8]
	ldr	x0, [sp, #8]
	add	sp, sp, #16
	ret
	.cfi_endproc
                                        ; -- End function
	.private_extern	__ZNSt3__117__compressed_pairIPNS_11__tree_nodeINS_12__value_typeIiiEEPvEENS_21__map_node_destructorINS_9allocatorIS5_EEEEE5firstB8ne180100Ev ; -- Begin function _ZNSt3__117__compressed_pairIPNS_11__tree_nodeINS_12__value_typeIiiEEPvEENS_21__map_node_destructorINS_9allocatorIS5_EEEEE5firstB8ne180100Ev
	.globl	__ZNSt3__117__compressed_pairIPNS_11__tree_nodeINS_12__value_typeIiiEEPvEENS_21__map_node_destructorINS_9allocatorIS5_EEEEE5firstB8ne180100Ev
	.weak_definition	__ZNSt3__117__compressed_pairIPNS_11__tree_nodeINS_12__value_typeIiiEEPvEENS_21__map_node_destructorINS_9allocatorIS5_EEEEE5firstB8ne180100Ev
	.p2align	2
__ZNSt3__117__compressed_pairIPNS_11__tree_nodeINS_12__value_typeIiiEEPvEENS_21__map_node_destructorINS_9allocatorIS5_EEEEE5firstB8ne180100Ev: ; @_ZNSt3__117__compressed_pairIPNS_11__tree_nodeINS_12__value_typeIiiEEPvEENS_21__map_node_destructorINS_9allocatorIS5_EEEEE5firstB8ne180100Ev
	.cfi_startproc
; %bb.0:
	sub	sp, sp, #32
	stp	x29, x30, [sp, #16]             ; 16-byte Folded Spill
	add	x29, sp, #16
	.cfi_def_cfa w29, 16
	.cfi_offset w30, -8
	.cfi_offset w29, -16
	str	x0, [sp, #8]
	ldr	x0, [sp, #8]
	bl	__ZNSt3__122__compressed_pair_elemIPNS_11__tree_nodeINS_12__value_typeIiiEEPvEELi0ELb0EE5__getB8ne180100Ev
	ldp	x29, x30, [sp, #16]             ; 16-byte Folded Reload
	add	sp, sp, #32
	ret
	.cfi_endproc
                                        ; -- End function
	.private_extern	__ZNSt3__122__compressed_pair_elemIPNS_11__tree_nodeINS_12__value_typeIiiEEPvEELi0ELb0EE5__getB8ne180100Ev ; -- Begin function _ZNSt3__122__compressed_pair_elemIPNS_11__tree_nodeINS_12__value_typeIiiEEPvEELi0ELb0EE5__getB8ne180100Ev
	.globl	__ZNSt3__122__compressed_pair_elemIPNS_11__tree_nodeINS_12__value_typeIiiEEPvEELi0ELb0EE5__getB8ne180100Ev
	.weak_definition	__ZNSt3__122__compressed_pair_elemIPNS_11__tree_nodeINS_12__value_typeIiiEEPvEELi0ELb0EE5__getB8ne180100Ev
	.p2align	2
__ZNSt3__122__compressed_pair_elemIPNS_11__tree_nodeINS_12__value_typeIiiEEPvEELi0ELb0EE5__getB8ne180100Ev: ; @_ZNSt3__122__compressed_pair_elemIPNS_11__tree_nodeINS_12__value_typeIiiEEPvEELi0ELb0EE5__getB8ne180100Ev
	.cfi_startproc
; %bb.0:
	sub	sp, sp, #16
	.cfi_def_cfa_offset 16
	str	x0, [sp, #8]
	ldr	x0, [sp, #8]
	add	sp, sp, #16
	ret
	.cfi_endproc
                                        ; -- End function
	.private_extern	__ZNSt3__110unique_ptrINS_11__tree_nodeINS_12__value_typeIiiEEPvEENS_21__map_node_destructorINS_9allocatorIS5_EEEEED2B8ne180100Ev ; -- Begin function _ZNSt3__110unique_ptrINS_11__tree_nodeINS_12__value_typeIiiEEPvEENS_21__map_node_destructorINS_9allocatorIS5_EEEEED2B8ne180100Ev
	.globl	__ZNSt3__110unique_ptrINS_11__tree_nodeINS_12__value_typeIiiEEPvEENS_21__map_node_destructorINS_9allocatorIS5_EEEEED2B8ne180100Ev
	.weak_def_can_be_hidden	__ZNSt3__110unique_ptrINS_11__tree_nodeINS_12__value_typeIiiEEPvEENS_21__map_node_destructorINS_9allocatorIS5_EEEEED2B8ne180100Ev
	.p2align	2
__ZNSt3__110unique_ptrINS_11__tree_nodeINS_12__value_typeIiiEEPvEENS_21__map_node_destructorINS_9allocatorIS5_EEEEED2B8ne180100Ev: ; @_ZNSt3__110unique_ptrINS_11__tree_nodeINS_12__value_typeIiiEEPvEENS_21__map_node_destructorINS_9allocatorIS5_EEEEED2B8ne180100Ev
	.cfi_startproc
; %bb.0:
	sub	sp, sp, #32
	stp	x29, x30, [sp, #16]             ; 16-byte Folded Spill
	add	x29, sp, #16
	.cfi_def_cfa w29, 16
	.cfi_offset w30, -8
	.cfi_offset w29, -16
	str	x0, [sp, #8]
	ldr	x0, [sp, #8]
	str	x0, [sp]                        ; 8-byte Folded Spill
	mov	x1, #0                          ; =0x0
	bl	__ZNSt3__110unique_ptrINS_11__tree_nodeINS_12__value_typeIiiEEPvEENS_21__map_node_destructorINS_9allocatorIS5_EEEEE5resetB8ne180100EPS5_
	ldr	x0, [sp]                        ; 8-byte Folded Reload
	ldp	x29, x30, [sp, #16]             ; 16-byte Folded Reload
	add	sp, sp, #32
	ret
	.cfi_endproc
                                        ; -- End function
	.private_extern	__ZNSt3__110unique_ptrINS_11__tree_nodeINS_12__value_typeIiiEEPvEENS_21__map_node_destructorINS_9allocatorIS5_EEEEE5resetB8ne180100EPS5_ ; -- Begin function _ZNSt3__110unique_ptrINS_11__tree_nodeINS_12__value_typeIiiEEPvEENS_21__map_node_destructorINS_9allocatorIS5_EEEEE5resetB8ne180100EPS5_
	.globl	__ZNSt3__110unique_ptrINS_11__tree_nodeINS_12__value_typeIiiEEPvEENS_21__map_node_destructorINS_9allocatorIS5_EEEEE5resetB8ne180100EPS5_
	.weak_definition	__ZNSt3__110unique_ptrINS_11__tree_nodeINS_12__value_typeIiiEEPvEENS_21__map_node_destructorINS_9allocatorIS5_EEEEE5resetB8ne180100EPS5_
	.p2align	2
__ZNSt3__110unique_ptrINS_11__tree_nodeINS_12__value_typeIiiEEPvEENS_21__map_node_destructorINS_9allocatorIS5_EEEEE5resetB8ne180100EPS5_: ; @_ZNSt3__110unique_ptrINS_11__tree_nodeINS_12__value_typeIiiEEPvEENS_21__map_node_destructorINS_9allocatorIS5_EEEEE5resetB8ne180100EPS5_
	.cfi_startproc
; %bb.0:
	sub	sp, sp, #64
	stp	x29, x30, [sp, #48]             ; 16-byte Folded Spill
	add	x29, sp, #48
	.cfi_def_cfa w29, 16
	.cfi_offset w30, -8
	.cfi_offset w29, -16
	stur	x0, [x29, #-8]
	stur	x1, [x29, #-16]
	ldur	x0, [x29, #-8]
	str	x0, [sp, #8]                    ; 8-byte Folded Spill
	bl	__ZNSt3__117__compressed_pairIPNS_11__tree_nodeINS_12__value_typeIiiEEPvEENS_21__map_node_destructorINS_9allocatorIS5_EEEEE5firstB8ne180100Ev
	mov	x8, x0
	ldr	x0, [sp, #8]                    ; 8-byte Folded Reload
	ldr	x8, [x8]
	str	x8, [sp, #24]
	ldur	x8, [x29, #-16]
	str	x8, [sp, #16]                   ; 8-byte Folded Spill
	bl	__ZNSt3__117__compressed_pairIPNS_11__tree_nodeINS_12__value_typeIiiEEPvEENS_21__map_node_destructorINS_9allocatorIS5_EEEEE5firstB8ne180100Ev
	ldr	x8, [sp, #16]                   ; 8-byte Folded Reload
	str	x8, [x0]
	ldr	x8, [sp, #24]
	subs	x8, x8, #0
	cset	w8, eq
	tbnz	w8, #0, LBB99_2
	b	LBB99_1
LBB99_1:
	ldr	x0, [sp, #8]                    ; 8-byte Folded Reload
	bl	__ZNSt3__117__compressed_pairIPNS_11__tree_nodeINS_12__value_typeIiiEEPvEENS_21__map_node_destructorINS_9allocatorIS5_EEEEE6secondB8ne180100Ev
	ldr	x1, [sp, #24]
	bl	__ZNSt3__121__map_node_destructorINS_9allocatorINS_11__tree_nodeINS_12__value_typeIiiEEPvEEEEEclB8ne180100EPS6_
	b	LBB99_2
LBB99_2:
	ldp	x29, x30, [sp, #48]             ; 16-byte Folded Reload
	add	sp, sp, #64
	ret
	.cfi_endproc
                                        ; -- End function
	.private_extern	__ZNSt3__121__map_node_destructorINS_9allocatorINS_11__tree_nodeINS_12__value_typeIiiEEPvEEEEEclB8ne180100EPS6_ ; -- Begin function _ZNSt3__121__map_node_destructorINS_9allocatorINS_11__tree_nodeINS_12__value_typeIiiEEPvEEEEEclB8ne180100EPS6_
	.globl	__ZNSt3__121__map_node_destructorINS_9allocatorINS_11__tree_nodeINS_12__value_typeIiiEEPvEEEEEclB8ne180100EPS6_
	.weak_definition	__ZNSt3__121__map_node_destructorINS_9allocatorINS_11__tree_nodeINS_12__value_typeIiiEEPvEEEEEclB8ne180100EPS6_
	.p2align	2
__ZNSt3__121__map_node_destructorINS_9allocatorINS_11__tree_nodeINS_12__value_typeIiiEEPvEEEEEclB8ne180100EPS6_: ; @_ZNSt3__121__map_node_destructorINS_9allocatorINS_11__tree_nodeINS_12__value_typeIiiEEPvEEEEEclB8ne180100EPS6_
Lfunc_begin7:
	.cfi_startproc
	.cfi_personality 155, ___gxx_personality_v0
	.cfi_lsda 16, Lexception7
; %bb.0:
	sub	sp, sp, #80
	stp	x29, x30, [sp, #64]             ; 16-byte Folded Spill
	add	x29, sp, #64
	.cfi_def_cfa w29, 16
	.cfi_offset w30, -8
	.cfi_offset w29, -16
	stur	x0, [x29, #-8]
	stur	x1, [x29, #-16]
	ldur	x8, [x29, #-8]
	str	x8, [sp, #24]                   ; 8-byte Folded Spill
	ldrb	w8, [x8, #9]
	tbz	w8, #0, LBB100_5
	b	LBB100_1
LBB100_1:
	ldr	x8, [sp, #24]                   ; 8-byte Folded Reload
	ldr	x8, [x8]
	str	x8, [sp, #16]                   ; 8-byte Folded Spill
	ldur	x8, [x29, #-16]
	add	x0, x8, #28
	bl	__ZNSt3__112__value_typeIiiE11__get_valueB8ne180100Ev
	mov	x8, x0
	ldr	x0, [sp, #16]                   ; 8-byte Folded Reload
	add	x1, x8, #4
Ltmp89:
	bl	__ZNSt3__116allocator_traitsINS_9allocatorINS_11__tree_nodeINS_12__value_typeIiiEEPvEEEEE7destroyB8ne180100IivvEEvRS7_PT_
Ltmp90:
	b	LBB100_2
LBB100_2:
	b	LBB100_5
LBB100_3:
Ltmp93:
	stur	x0, [x29, #-24]
	mov	x8, x1
	stur	w8, [x29, #-28]
	b	LBB100_4
LBB100_4:
	ldur	x0, [x29, #-24]
	bl	___cxa_call_unexpected
LBB100_5:
	ldr	x8, [sp, #24]                   ; 8-byte Folded Reload
	ldrb	w8, [x8, #8]
	tbz	w8, #0, LBB100_8
	b	LBB100_6
LBB100_6:
	ldr	x8, [sp, #24]                   ; 8-byte Folded Reload
	ldr	x8, [x8]
	str	x8, [sp, #8]                    ; 8-byte Folded Spill
	ldur	x8, [x29, #-16]
	add	x0, x8, #28
	bl	__ZNSt3__112__value_typeIiiE11__get_valueB8ne180100Ev
	mov	x1, x0
	ldr	x0, [sp, #8]                    ; 8-byte Folded Reload
Ltmp91:
	bl	__ZNSt3__116allocator_traitsINS_9allocatorINS_11__tree_nodeINS_12__value_typeIiiEEPvEEEEE7destroyB8ne180100IKivvEEvRS7_PT_
Ltmp92:
	b	LBB100_7
LBB100_7:
	b	LBB100_8
LBB100_8:
	ldur	x8, [x29, #-16]
	subs	x8, x8, #0
	cset	w8, eq
	tbnz	w8, #0, LBB100_10
	b	LBB100_9
LBB100_9:
	ldr	x8, [sp, #24]                   ; 8-byte Folded Reload
	ldr	x0, [x8]
	ldur	x1, [x29, #-16]
	mov	x2, #1                          ; =0x1
	bl	__ZNSt3__116allocator_traitsINS_9allocatorINS_11__tree_nodeINS_12__value_typeIiiEEPvEEEEE10deallocateB8ne180100ERS7_PS6_m
	b	LBB100_10
LBB100_10:
	ldp	x29, x30, [sp, #64]             ; 16-byte Folded Reload
	add	sp, sp, #80
	ret
Lfunc_end7:
	.cfi_endproc
	.section	__TEXT,__gcc_except_tab
	.p2align	2, 0x0
GCC_except_table100:
Lexception7:
	.byte	255                             ; @LPStart Encoding = omit
	.byte	155                             ; @TType Encoding = indirect pcrel sdata4
	.uleb128 Lttbase7-Lttbaseref7
Lttbaseref7:
	.byte	1                               ; Call site Encoding = uleb128
	.uleb128 Lcst_end7-Lcst_begin7
Lcst_begin7:
	.uleb128 Ltmp89-Lfunc_begin7            ; >> Call Site 1 <<
	.uleb128 Ltmp90-Ltmp89                  ;   Call between Ltmp89 and Ltmp90
	.uleb128 Ltmp93-Lfunc_begin7            ;     jumps to Ltmp93
	.byte	1                               ;   On action: 1
	.uleb128 Ltmp90-Lfunc_begin7            ; >> Call Site 2 <<
	.uleb128 Ltmp91-Ltmp90                  ;   Call between Ltmp90 and Ltmp91
	.byte	0                               ;     has no landing pad
	.byte	0                               ;   On action: cleanup
	.uleb128 Ltmp91-Lfunc_begin7            ; >> Call Site 3 <<
	.uleb128 Ltmp92-Ltmp91                  ;   Call between Ltmp91 and Ltmp92
	.uleb128 Ltmp93-Lfunc_begin7            ;     jumps to Ltmp93
	.byte	1                               ;   On action: 1
Lcst_end7:
	.byte	127                             ; >> Action Record 1 <<
                                        ;   Filter TypeInfo -1
	.byte	0                               ;   No further actions
	.p2align	2, 0x0
Lttbase7:
                                        ; >> Filter TypeInfos <<
	.byte	0
	.p2align	2, 0x0
                                        ; -- End function
	.section	__TEXT,__text,regular,pure_instructions
	.globl	__ZNSt3__116allocator_traitsINS_9allocatorINS_11__tree_nodeINS_12__value_typeIiiEEPvEEEEE7destroyB8ne180100IivvEEvRS7_PT_ ; -- Begin function _ZNSt3__116allocator_traitsINS_9allocatorINS_11__tree_nodeINS_12__value_typeIiiEEPvEEEEE7destroyB8ne180100IivvEEvRS7_PT_
	.weak_definition	__ZNSt3__116allocator_traitsINS_9allocatorINS_11__tree_nodeINS_12__value_typeIiiEEPvEEEEE7destroyB8ne180100IivvEEvRS7_PT_
	.p2align	2
__ZNSt3__116allocator_traitsINS_9allocatorINS_11__tree_nodeINS_12__value_typeIiiEEPvEEEEE7destroyB8ne180100IivvEEvRS7_PT_: ; @_ZNSt3__116allocator_traitsINS_9allocatorINS_11__tree_nodeINS_12__value_typeIiiEEPvEEEEE7destroyB8ne180100IivvEEvRS7_PT_
	.cfi_startproc
; %bb.0:
	sub	sp, sp, #32
	stp	x29, x30, [sp, #16]             ; 16-byte Folded Spill
	add	x29, sp, #16
	.cfi_def_cfa w29, 16
	.cfi_offset w30, -8
	.cfi_offset w29, -16
	str	x0, [sp, #8]
	str	x1, [sp]
	ldr	x0, [sp]
	bl	__ZNSt3__112__destroy_atB8ne180100IiLi0EEEvPT_
	ldp	x29, x30, [sp, #16]             ; 16-byte Folded Reload
	add	sp, sp, #32
	ret
	.cfi_endproc
                                        ; -- End function
	.globl	__ZNSt3__116allocator_traitsINS_9allocatorINS_11__tree_nodeINS_12__value_typeIiiEEPvEEEEE7destroyB8ne180100IKivvEEvRS7_PT_ ; -- Begin function _ZNSt3__116allocator_traitsINS_9allocatorINS_11__tree_nodeINS_12__value_typeIiiEEPvEEEEE7destroyB8ne180100IKivvEEvRS7_PT_
	.weak_definition	__ZNSt3__116allocator_traitsINS_9allocatorINS_11__tree_nodeINS_12__value_typeIiiEEPvEEEEE7destroyB8ne180100IKivvEEvRS7_PT_
	.p2align	2
__ZNSt3__116allocator_traitsINS_9allocatorINS_11__tree_nodeINS_12__value_typeIiiEEPvEEEEE7destroyB8ne180100IKivvEEvRS7_PT_: ; @_ZNSt3__116allocator_traitsINS_9allocatorINS_11__tree_nodeINS_12__value_typeIiiEEPvEEEEE7destroyB8ne180100IKivvEEvRS7_PT_
	.cfi_startproc
; %bb.0:
	sub	sp, sp, #32
	stp	x29, x30, [sp, #16]             ; 16-byte Folded Spill
	add	x29, sp, #16
	.cfi_def_cfa w29, 16
	.cfi_offset w30, -8
	.cfi_offset w29, -16
	str	x0, [sp, #8]
	str	x1, [sp]
	ldr	x0, [sp]
	bl	__ZNSt3__112__destroy_atB8ne180100IKiLi0EEEvPT_
	ldp	x29, x30, [sp, #16]             ; 16-byte Folded Reload
	add	sp, sp, #32
	ret
	.cfi_endproc
                                        ; -- End function
	.private_extern	__ZNSt3__112__destroy_atB8ne180100IiLi0EEEvPT_ ; -- Begin function _ZNSt3__112__destroy_atB8ne180100IiLi0EEEvPT_
	.globl	__ZNSt3__112__destroy_atB8ne180100IiLi0EEEvPT_
	.weak_definition	__ZNSt3__112__destroy_atB8ne180100IiLi0EEEvPT_
	.p2align	2
__ZNSt3__112__destroy_atB8ne180100IiLi0EEEvPT_: ; @_ZNSt3__112__destroy_atB8ne180100IiLi0EEEvPT_
	.cfi_startproc
; %bb.0:
	sub	sp, sp, #16
	.cfi_def_cfa_offset 16
	str	x0, [sp, #8]
	add	sp, sp, #16
	ret
	.cfi_endproc
                                        ; -- End function
	.private_extern	__ZNSt3__112__destroy_atB8ne180100IKiLi0EEEvPT_ ; -- Begin function _ZNSt3__112__destroy_atB8ne180100IKiLi0EEEvPT_
	.globl	__ZNSt3__112__destroy_atB8ne180100IKiLi0EEEvPT_
	.weak_definition	__ZNSt3__112__destroy_atB8ne180100IKiLi0EEEvPT_
	.p2align	2
__ZNSt3__112__destroy_atB8ne180100IKiLi0EEEvPT_: ; @_ZNSt3__112__destroy_atB8ne180100IKiLi0EEEvPT_
	.cfi_startproc
; %bb.0:
	sub	sp, sp, #16
	.cfi_def_cfa_offset 16
	str	x0, [sp, #8]
	add	sp, sp, #16
	ret
	.cfi_endproc
                                        ; -- End function
.subsections_via_symbols
